00000 5657 JMP PC I 057
00001 0260 AND PC 060
00002 6661 device=66,func=1
00003 2240 ISZ PC 040
00004 6331 device=33,func=1
00005 2720 ISZ PC I 120
00006 6240 device=24,func=0
00007 4324 JMS PC 124
00010 6305 device=30,func=5
00011 1640 TAD PC I 040
00012 6710 device=71,func=0
00013 1301 TAD PC 101
00014 6701 device=70,func=1
00015 2303 ISZ PC 103
00016 6705 device=70,func=5
00017 1722 TAD PC I 122
00020 6240 device=24,func=0
00021 7706 OPR CLA SMA OSR HLT 
00022 6314 device=31,func=4
00023 7714 OPR CLA SPA OSR 
00024 6327 device=32,func=7
00025 7311 OPR CLA CLL RAR IAC 
00026 6707 device=70,func=7
00027 2240 ISZ PC 040
00030 5310 JMP PC 110
00031 0305 AND PC 105
00032 6712 device=71,func=2
00033 1715 TAD PC I 115
00034 6240 device=24,func=0
00035 7311 OPR CLA CLL RAR IAC 
00036 6723 device=72,func=3
00037 1324 TAD PC 124
00040 4256 JMS PC 056
00041 5215 JMP PC 015
00042 6257 device=25,func=7
00043 2724 ISZ PC I 124
00044 6322 device=32,func=2
00045 4715 JMS PC I 115
00046 6716 device=71,func=6
00047 2301 ISZ PC 101
00050 5317 JMP PC 117
00051 0322 AND PC 122
00052 5311 JMP PC 111
00053 0323 AND PC 123
00054 6701 device=70,func=1
00055 5240 JMP PC 040
00056 6305 device=30,func=5
00057 7722 OPR CLA SMA SNL HLT 
00060 4256 JMS PC 056
00061 5215 JMP PC 015
00062 4257 JMS PC 057
00063 5215 JMP PC 015
00064 6257 device=25,func=7
00065 5211 JMP PC 011
00066 5315 JMP PC 115
00067 0323 AND PC 123
00070 6724 device=72,func=4
00071 0331 AND PC 131
00072 6724 device=72,func=4
00073 4305 JMS PC 105
00074 6611 device=61,func=1
00075 2257 ISZ PC 057
00076 6331 device=33,func=1
00077 2720 ISZ PC I 120
00100 6240 device=24,func=0
00101 0642 AND PC I 042
00102 5302 JMP PC 102
00103 1303 TAD PC 103
00104 5215 JMP PC 015
00105 7612 OPR CLA HLT 
00106 5611 JMP PC I 011
00107 0263 AND PC 063
00110 4261 JMS PC 061
00111 4611 JMS PC I 011
00112 6257 device=25,func=7
00113 0642 AND PC I 042
00114 4242 JMS PC 042
00115 5215 JMP PC 015
00116 5657 JMP PC I 057
00117 1611 TAD PC I 011
00120 4260 JMS PC 060
00121 4662 JMS PC I 062
00122 5211 JMP PC 011
00123 1257 TAD PC 057
00124 4302 JMS PC 102
00125 6642 device=64,func=2
00126 4212 JMS PC 012
00127 4657 JMS PC I 057
00130 5663 JMP PC I 063
00131 1660 TAD PC I 060
00132 5211 JMP PC 011
00133 7611 OPR CLA SCL DIV SHL LSR NMI
00134 5242 JMP PC 042
00135 1303 TAD PC 103
00136 5215 JMP PC 015
00137 7612 OPR CLA HLT 
00140 4211 JMS PC 011
00141 4660 JMS PC I 060
00142 6611 device=61,func=1
00143 2257 ISZ PC 057
00144 6305 device=30,func=5
00145 6722 device=72,func=2
00146 6311 device=31,func=1
00147 0716 AND PC I 116
00150 6724 device=72,func=4
00151 1317 TAD PC 117
00152 5215 JMP PC 015
00153 7612 OPR CLA HLT 
00154 5211 JMP PC 011
00155 0240 AND PC 040
00156 6240 device=24,func=0
00157 2722 ISZ PC I 122
00160 6724 device=72,func=4
00161 1325 TAD PC 125
00162 5316 JMP PC 116
00163 7611 OPR CLA SCL DIV SHL LSR NMI
00164 5701 JMP PC I 101
00165 6703 device=70,func=3
00166 4260 JMS PC 060
00167 5215 JMP PC 015
00170 6615 device=61,func=5
00171 2212 ISZ PC 012
00172 6731 device=73,func=1
00173 2320 ISZ PC 120
00174 5305 JMP PC 105
00175 6330 device=33,func=0
00176 4211 JMS PC 011
00177 6660 device=66,func=0
00200 6612 device=61,func=2
00201 2211 ISZ PC 011
00202 5301 JMP PC 101
00203 0304 AND PC 104
00204 6711 device=71,func=1
00205 2240 ISZ PC 040
00206 6731 device=73,func=1
00207 2320 ISZ PC 120
00210 4305 JMS PC 105
00211 4730 JMS PC I 130
00212 6257 device=25,func=7
00213 2707 ISZ PC I 107
00214 6324 device=32,func=4
00215 1640 TAD PC I 040
00216 6710 device=71,func=0
00217 1301 TAD PC 101
00220 4256 JMS PC 056
00221 5215 JMP PC 015
00222 6611 device=61,func=1
00223 1711 TAD PC I 111
00224 6732 device=73,func=2
00225 2240 ISZ PC 040
00226 6731 device=73,func=1
00227 2320 ISZ PC 120
00230 4305 JMS PC 105
00231 6730 device=73,func=0
00232 6612 device=61,func=2
00233 1611 TAD PC I 011
00234 4316 JMS PC 116
00235 4701 JMS PC I 101
00236 6611 device=61,func=1
00237 5257 JMP PC 057
00240 6305 device=30,func=5
00241 7722 OPR CLA SMA SNL HLT 
00242 4277 JMS PC 077
00243 5215 JMP PC 015
00244 6211 device=21,func=1
00245 6712 device=71,func=2
00246 6320 device=32,func=0
00247 4640 JMS PC I 040
00250 6640 device=64,func=0
00251 4724 JMS PC I 124
00252 6320 device=32,func=0
00253 2724 ISZ PC I 124
00254 5330 JMP PC 130
00255 7611 OPR CLA SCL DIV SHL LSR NMI
00256 6731 device=73,func=1
00257 1705 TAD PC I 105
00260 6254 device=25,func=4
00261 6712 device=71,func=2
00262 6720 device=72,func=0
00263 2240 ISZ PC 040
00264 6317 device=31,func=7
00265 7240 OPR CLA CMA 
00266 6705 device=70,func=5
00267 2330 ISZ PC 130
00270 6240 device=24,func=0
00271 7714 OPR CLA SPA OSR 
00272 4303 JMS PC 103
00273 6656 device=65,func=6
00274 6212 device=21,func=2
00275 5211 JMP PC 011
00276 5315 JMP PC 115
00277 0323 AND PC 123
00300 6724 device=72,func=4
00301 0331 AND PC 131
00302 5305 JMP PC 105
00303 7611 OPR CLA SCL DIV SHL LSR NMI
00304 5316 JMP PC 116
00305 6317 device=31,func=7
00306 6724 device=72,func=4
00307 0331 AND PC 131
00310 4305 JMS PC 105
00311 5215 JMP PC 015
00312 6211 device=21,func=1
00313 6712 device=71,func=2
00314 6720 device=72,func=0
00315 2240 ISZ PC 040
00316 6731 device=73,func=1
00317 2320 ISZ PC 120
00320 5305 JMP PC 105
00321 5730 JMP PC I 130
00322 4261 JMS PC 061
00323 5215 JMP PC 015
00324 5614 JMP PC I 014
00325 0257 AND PC 057
00326 5260 JMP PC 060
00327 0262 AND PC 062
00330 6324 device=32,func=4
00331 6305 device=30,func=5
00332 6705 device=70,func=5
00333 4724 JMS PC I 124
00334 5320 JMP PC 120
00335 0305 AND PC 105
00336 6724 device=72,func=4
00337 0331 AND PC 131
00340 6705 device=70,func=5
00341 1240 TAD PC 040
00342 6717 device=71,func=7
00343 2325 ISZ PC 125
00344 6311 device=31,func=1
00345 2716 ISZ PC I 116
00346 5215 JMP PC 015
00347 7612 OPR CLA HLT 
00350 6311 device=31,func=1
00351 4716 JMS PC I 116
00352 6324 device=32,func=4
00353 0711 AND PC I 111
00354 6714 device=71,func=4
00355 5311 JMP PC 111
00356 5305 JMP PC 105
00357 0323 AND PC 123
00360 6240 device=24,func=0
00361 4327 JMS PC 127
00362 5305 JMP PC 105
00363 0316 AND PC 116
00364 6705 device=70,func=5
00365 2316 ISZ PC 116
00366 6305 device=30,func=5
00367 2722 ISZ PC I 122
00370 6304 device=30,func=4
00371 3240 DCA PC 040
00372 5317 JMP PC 117
00373 0322 AND PC 122
00374 6706 device=70,func=6
00375 1311 TAD PC 111
00376 5323 JMP PC 123
00377 0324 AND PC 124
00400 6324 device=32,func=4
00401 6711 device=71,func=1
00402 4305 JMS PC 105
00403 6656 device=65,func=6
00404 6212 device=21,func=2
00405 7257 OPR CLA CMA RAR RAL BSW IAC 
00406 5317 JMP PC 117
00407 0324 AND PC 124
00410 6722 device=72,func=2
00411 1705 TAD PC I 105
00412 6724 device=72,func=4
00413 1301 TAD PC 101
00414 6324 device=32,func=4
00415 1301 TAD PC 101
00416 5314 JMP PC 114
00417 0305 AND PC 105
00420 4241 JMS PC 041
00421 5215 JMP PC 015
00422 4257 JMS PC 057
00423 5215 JMP PC 015
00424 6657 device=65,func=7
00425 2211 ISZ PC 011
00426 5301 JMP PC 101
00427 0304 AND PC 104
00430 6303 device=30,func=3
00431 0710 AND PC I 110
00432 6322 device=32,func=2
00433 1701 TAD PC I 101
00434 6724 device=72,func=4
00435 1305 TAD PC 105
00436 5215 JMP PC 015
00437 7612 OPR CLA HLT 
00440 6211 device=21,func=1
00441 6712 device=71,func=2
00442 6723 device=72,func=3
00443 2240 ISZ PC 040
00444 6331 device=33,func=1
00445 2720 ISZ PC I 120
00446 5215 JMP PC 015
00447 7612 OPR CLA HLT 
00450 5211 JMP PC 011
00451 0240 AND PC 040
00452 6240 device=24,func=0
00453 2722 ISZ PC I 122
00454 6724 device=72,func=4
00455 1325 TAD PC 125
00456 5316 JMP PC 116
00457 7611 OPR CLA SCL DIV SHL LSR NMI
00460 5701 JMP PC I 101
00461 6703 device=70,func=3
00462 4260 JMS PC 060
00463 5215 JMP PC 015
00464 4215 JMS PC 015
00465 4612 JMS PC I 012
00466 6716 device=71,func=6
00467 0317 AND PC 117
00470 6615 device=61,func=5
00471 2212 ISZ PC 012
00472 6331 device=33,func=1
00473 2720 ISZ PC I 120
00474 5654 JMP PC I 054
00475 0211 AND PC 011
00476 4215 JMS PC 015
00477 4612 JMS PC I 012
00500 6712 device=71,func=2
00501 0315 AND PC 115
00502 5240 JMP PC 040
00503 5656 JMP PC I 056
00504 4263 JMS PC 063
00505 4611 JMS PC I 011
00506 6657 device=65,func=7
00507 3317 DCA PC 117
00510 6305 device=30,func=5
00511 6322 device=32,func=2
00512 6301 device=30,func=1
00513 2311 ISZ PC 111
00514 6640 device=64,func=0
00515 4702 JMS PC I 102
00516 6240 device=24,func=0
00517 7242 OPR CLA CMA BSW 
00520 5317 JMP PC 117
00521 1320 TAD PC 120
00522 4215 JMS PC 015
00523 4612 JMS PC I 012
00524 6324 device=32,func=4
00525 3323 DCA PC 123
00526 4215 JMS PC 015
00527 4612 JMS PC I 012
00530 6712 device=71,func=2
00531 0315 AND PC 115
00532 5240 JMP PC 040
00533 6656 device=65,func=6
00534 4261 JMS PC 061
00535 5215 JMP PC 015
00536 6211 device=21,func=1
00537 6324 device=32,func=4
00540 4323 JMS PC 123
00541 5215 JMP PC 015
00542 6211 device=21,func=1
00543 6303 device=30,func=3
00544 4301 JMS PC 101
00545 5215 JMP PC 015
00546 6211 device=21,func=1
00547 0724 AND PC I 124
00550 6704 device=70,func=4
00551 2240 ISZ PC 040
00552 6331 device=33,func=1
00553 2720 ISZ PC I 120
00554 4255 JMS PC 055
00555 6661 device=66,func=1
00556 6212 device=21,func=2
00557 2211 ISZ PC 011
00560 5303 JMP PC 103
00561 0301 AND PC 101
00562 6724 device=72,func=4
00563 0331 AND PC 131
00564 5705 JMP PC I 105
00565 0653 AND PC I 053
00566 4215 JMS PC 015
00567 4612 JMS PC I 012
00570 6712 device=71,func=2
00571 0315 AND PC 115
00572 5240 JMP PC 040
00573 0311 AND PC 111
00574 6724 device=72,func=4
00575 0331 AND PC 131
00576 4305 JMS PC 105
00577 5215 JMP PC 015
00600 5614 JMP PC I 014
00601 0257 AND PC 057
00602 5260 JMP PC 060
00603 0263 AND PC 063
00604 6724 device=72,func=4
00605 0331 AND PC 131
00606 6320 device=32,func=0
00607 0640 AND PC I 040
00610 6240 device=24,func=0
00611 4303 JMS PC 103
00612 6301 device=30,func=1
00613 0722 AND PC I 122
00614 6303 device=30,func=3
00615 2724 ISZ PC I 124
00616 6322 device=32,func=2
00617 1640 TAD PC I 040
00620 6310 device=31,func=0
00621 4701 JMS PC I 101
00622 4316 JMS PC 116
00623 5215 JMP PC 015
00624 6657 device=65,func=7
00625 4724 JMS PC I 124
00626 5320 JMP PC 120
00627 0305 AND PC 105
00630 6324 device=32,func=4
00631 2710 ISZ PC I 110
00632 6240 device=24,func=0
00633 4303 JMS PC 103
00634 6301 device=30,func=1
00635 0722 AND PC I 122
00636 6303 device=30,func=3
00637 2724 ISZ PC I 124
00640 5322 JMP PC 122
00641 0323 AND PC 123
00642 5311 JMP PC 111
00643 0316 AND PC 116
00644 6324 device=32,func=4
00645 2710 ISZ PC I 110
00646 6240 device=24,func=0
00647 4714 JMS PC I 114
00650 5323 JMP PC 123
00651 6324 device=32,func=4
00652 6240 device=24,func=0
00653 7720 OPR CLA SMA SNL 
00654 6711 device=71,func=1
00655 2316 ISZ PC 116
00656 5305 JMP PC 105
00657 0304 AND PC 104
00660 4324 JMS PC 124
00661 6717 device=71,func=7
00662 6212 device=21,func=2
00663 1257 TAD PC 057
00664 6731 device=73,func=1
00665 2240 ISZ PC 040
00666 5310 JMP PC 110
00667 0305 AND PC 105
00670 6706 device=70,func=6
00671 1311 TAD PC 111
00672 5323 JMP PC 123
00673 0324 AND PC 124
00674 6301 device=30,func=1
00675 3722 DCA PC I 122
00676 6325 device=32,func=5
00677 2715 ISZ PC I 115
00700 5316 JMP PC 116
00701 7324 OPR CLA CLL CML RAL 
00702 6240 device=24,func=0
00703 4714 JMS PC I 114
00704 5323 JMP PC 123
00705 0324 AND PC 124
00706 6724 device=72,func=4
00707 1305 TAD PC 105
00710 6315 device=31,func=5
00711 7311 OPR CLA CLL RAR IAC 
00712 6301 device=30,func=1
00713 7724 OPR CLA SMA SNL OSR 
00714 5722 JMP PC I 122
00715 6640 device=64,func=0
00716 4260 JMS PC 060
00717 5215 JMP PC 015
00720 4257 JMS PC 057
00721 5215 JMP PC 015
00722 6257 device=25,func=7
00723 5211 JMP PC 011
00724 5315 JMP PC 115
00725 0323 AND PC 123
00726 6724 device=72,func=4
00727 0331 AND PC 131
00730 6724 device=72,func=4
00731 4305 JMS PC 105
00732 6611 device=61,func=1
00733 2257 ISZ PC 057
00734 6331 device=33,func=1
00735 2720 ISZ PC I 120
00736 6240 device=24,func=0
00737 0642 AND PC I 042
00740 5302 JMP PC 102
00741 1303 TAD PC 103
00742 5215 JMP PC 015
00743 7612 OPR CLA HLT 
00744 5211 JMP PC 011
00745 0240 AND PC 040
00746 6240 device=24,func=0
00747 4714 JMS PC I 114
00750 4323 JMS PC 123
00751 6724 device=72,func=4
00752 4212 JMS PC 012
00753 4657 JMS PC I 057
00754 5240 JMP PC 040
00755 0240 AND PC 040
00756 6722 device=72,func=2
00757 2305 ISZ PC 105
00760 6325 device=32,func=5
00761 7322 OPR CLA CLL CML BSW 
00762 6211 device=21,func=1
00763 0657 AND PC I 057
00764 5703 JMP PC I 103
00765 0275 AND PC 075
00766 4215 JMS PC 015
00767 5212 JMP PC 012
00770 5215 JMP PC 015
00771 7612 OPR CLA HLT 
00772 5215 JMP PC 015
00773 7612 OPR CLA HLT 
00774 6714 device=71,func=4
00775 1711 TAD PC I 111
00776 4324 JMS PC 124
00777 4654 JMS PC I 054
01000 5663 JMP PC I 063
01001 0660 AND PC I 060
01002 5215 JMP PC 015
01003 7612 OPR CLA HLT 
01004 5611 JMP PC I 011
01005 0263 AND PC 063
01006 4262 JMS PC 062
01007 5215 JMP PC 015
01010 5657 JMP PC I 057
01011 1611 TAD PC I 011
01012 4260 JMS PC 060
01013 6663 device=66,func=3
01014 4212 JMS PC 012
01015 4657 JMS PC I 057
01016 4260 JMS PC 060
01017 5215 JMP PC 015
01020 4215 JMS PC 015
01021 4612 JMS PC I 012
01022 4260 JMS PC 060
01023 4611 JMS PC I 011
01024 6657 device=65,func=7
01025 1725 TAD PC I 125
01026 5305 JMP PC 105
01027 0304 AND PC 104
01030 5301 JMP PC 101
01031 0323 AND PC 123
01032 6320 device=32,func=0
01033 4717 JMS PC I 117
01034 6316 device=31,func=6
01035 2724 ISZ PC I 124
01036 4322 JMS PC 122
01037 5215 JMP PC 015
01040 6724 device=72,func=4
01041 0331 AND PC 131
01042 6724 device=72,func=4
01043 4305 JMS PC 105
01044 5654 JMP PC I 054
01045 0211 AND PC 011
01046 5211 JMP PC 011
01047 7611 OPR CLA SCL DIV SHL LSR NMI
01050 6724 device=72,func=4
01051 0331 AND PC 131
01052 6705 device=70,func=5
01053 2240 ISZ PC 040
01054 6705 device=70,func=5
01055 2330 ISZ PC 130
01056 6723 device=72,func=3
01057 1324 TAD PC 124
01060 6311 device=31,func=1
01061 3716 DCA PC I 116
01062 4215 JMS PC 015
01063 4612 JMS PC I 012
01064 6324 device=32,func=4
01065 2301 ISZ PC 101
01066 5240 JMP PC 040
01067 0311 AND PC 111
01070 6724 device=72,func=4
01071 0331 AND PC 131
01072 6724 device=72,func=4
01073 4305 JMS PC 105
01074 6211 device=21,func=1
01075 3657 DCA PC I 057
01076 5305 JMP PC 105
01077 0324 AND PC 124
01100 6301 device=30,func=1
01101 3722 DCA PC I 122
01102 4215 JMS PC 015
01103 4612 JMS PC I 012
01104 6304 device=30,func=4
01105 0703 AND PC I 103
01106 6640 device=64,func=0
01107 4724 JMS PC I 124
01110 6320 device=32,func=0
01111 2724 ISZ PC I 124
01112 5730 JMP PC I 130
01113 0655 AND PC I 055
01114 6611 device=61,func=1
01115 1657 TAD PC I 057
01116 6301 device=30,func=1
01117 2726 ISZ PC I 126
01120 6240 device=24,func=0
01121 7724 OPR CLA SMA SNL OSR 
01122 6640 device=64,func=0
01123 1725 TAD PC I 125
01124 6305 device=30,func=5
01125 0640 AND PC I 040
01126 6723 device=72,func=3
01127 0240 AND PC 040
01130 6317 device=31,func=7
01131 7311 OPR CLA CLL RAR IAC 
01132 6724 device=72,func=4
01133 1305 TAD PC 105
01134 4215 JMS PC 015
01135 4612 JMS PC I 012
01136 6711 device=71,func=1
01137 5323 JMP PC 123
01140 6640 device=64,func=0
01141 4724 JMS PC I 124
01142 6320 device=32,func=0
01143 2724 ISZ PC I 124
01144 5330 JMP PC 130
01145 7611 OPR CLA SCL DIV SHL LSR NMI
01146 6706 device=70,func=6
01147 1317 TAD PC 117
01150 6240 device=24,func=0
01151 7640 OPR CLA SZA 
01152 6322 device=32,func=2
01153 2722 ISZ PC I 122
01154 5303 JMP PC 103
01155 0324 AND PC 124
01156 6722 device=72,func=2
01157 2305 ISZ PC 105
01160 6325 device=32,func=5
01161 7322 OPR CLA CLL CML BSW 
01162 4215 JMS PC 015
01163 4612 JMS PC I 012
01164 6324 device=32,func=4
01165 2301 ISZ PC 101
01166 5240 JMP PC 040
01167 0311 AND PC 111
01170 6724 device=72,func=4
01171 0331 AND PC 131
01172 6724 device=72,func=4
01173 4305 JMS PC 105
01174 4255 JMS PC 055
01175 4661 JMS PC I 061
01176 6257 device=25,func=7
01177 2707 ISZ PC I 107
01200 6324 device=32,func=4
01201 1640 TAD PC I 040
01202 6710 device=71,func=0
01203 1301 TAD PC 101
01204 4215 JMS PC 015
01205 4612 JMS PC I 012
01206 6323 device=32,func=3
01207 0716 AND PC I 116
01210 5211 JMP PC 011
01211 7611 OPR CLA SCL DIV SHL LSR NMI
01212 6732 device=73,func=2
01213 1305 TAD PC 105
01214 4317 JMS PC 117
01215 6677 device=67,func=7
01216 6212 device=21,func=2
01217 5211 JMP PC 011
01220 5315 JMP PC 115
01221 0320 AND PC 120
01222 6711 device=71,func=1
01223 2240 ISZ PC 040
01224 6731 device=73,func=1
01225 2320 ISZ PC 120
01226 4305 JMS PC 105
01227 4730 JMS PC I 130
01230 6257 device=25,func=7
01231 2731 ISZ PC I 131
01232 5323 JMP PC 123
01233 0254 AND PC 054
01234 6722 device=72,func=2
01235 2305 ISZ PC 105
01236 6325 device=32,func=5
01237 7322 OPR CLA CLL CML BSW 
01240 4215 JMS PC 015
01241 4612 JMS PC I 012
01242 6712 device=71,func=2
01243 1715 TAD PC I 115
01244 6640 device=64,func=0
01245 4724 JMS PC I 124
01246 4320 JMS PC 120
01247 4705 JMS PC I 105
01250 6257 device=25,func=7
01251 7716 OPR CLA SPA OSR HLT 
01252 4215 JMS PC 015
01253 4612 JMS PC I 012
01254 6711 device=71,func=1
01255 5323 JMP PC 123
01256 6640 device=64,func=0
01257 4724 JMS PC I 124
01260 6320 device=32,func=0
01261 2724 ISZ PC I 124
01262 5730 JMP PC I 130
01263 0655 AND PC I 055
01264 4215 JMS PC 015
01265 4612 JMS PC I 012
01266 6712 device=71,func=2
01267 0315 AND PC 115
01270 6640 device=64,func=0
01271 4724 JMS PC I 124
01272 6320 device=32,func=0
01273 2724 ISZ PC I 124
01274 5730 JMP PC I 130
01275 2253 ISZ PC 053
01276 6211 device=21,func=1
01277 6257 device=25,func=7
01300 6317 device=31,func=7
01301 5717 JMP PC I 117
01302 6240 device=24,func=0
01303 7706 OPR CLA SMA OSR HLT 
01304 6322 device=32,func=2
01305 7240 OPR CLA CMA 
01306 6705 device=70,func=5
01307 2330 ISZ PC 130
01310 4215 JMS PC 015
01311 6212 device=21,func=2
01312 5657 JMP PC I 057
01313 0260 AND PC 060
01314 6264 device=26,func=4
01315 1240 TAD PC 040
01316 6311 device=31,func=1
01317 0716 AND PC I 116
01320 5322 JMP PC 122
01321 0331 AND PC 131
01322 5324 JMP PC 124
01323 0317 AND PC 117
01324 6304 device=30,func=4
01325 1705 TAD PC I 105
01326 6311 device=31,func=1
01327 0715 AND PC I 115
01330 6314 device=31,func=4
01331 1640 TAD PC I 040
01332 6717 device=71,func=7
01333 3316 DCA PC 116
01334 6705 device=70,func=5
01335 1722 TAD PC I 122
01336 6311 device=31,func=1
01337 7317 OPR CLA CLL RAR RAL BSW IAC 
01340 6240 device=24,func=0
01341 7301 OPR CLA CLL IAC 
01342 6704 device=70,func=4
01343 2240 ISZ PC 040
01344 6331 device=33,func=1
01345 2720 ISZ PC I 120
01346 6273 device=27,func=3
01347 7240 OPR CLA CMA 
01350 6717 device=71,func=7
01351 1640 TAD PC I 040
01352 6311 device=31,func=1
01353 7307 OPR CLA CLL RAL BSW IAC 
01354 5215 JMP PC 015
01355 7612 OPR CLA HLT 
01356 6722 device=72,func=2
01357 2717 ISZ PC I 117
01360 6324 device=32,func=4
01361 7311 OPR CLA CLL RAR IAC 
01362 6705 device=70,func=5
01363 2240 ISZ PC 040
01364 6317 device=31,func=7
01365 1640 TAD PC I 040
01366 6717 device=71,func=7
01367 3316 DCA PC 116
01370 6705 device=70,func=5
01371 2322 ISZ PC 122
01372 5240 JMP PC 040
01373 0301 AND PC 101
01374 6302 device=30,func=2
01375 7311 OPR CLA CLL RAR IAC 
01376 6701 device=70,func=1
01377 4722 JMS PC I 122
01400 6240 device=24,func=0
01401 7727 OPR CLA MQA MQL SCL DIV SHL LSR DIV
01402 5322 JMP PC 122
01403 0304 AND PC 104
01404 5324 JMP PC 124
01405 0317 AND PC 117
01406 6304 device=30,func=4
01407 1705 TAD PC I 105
01410 6311 device=31,func=1
01411 0715 AND PC I 115
01412 6314 device=31,func=4
01413 0640 AND PC I 040
01414 5316 JMP PC 116
01415 0304 AND PC 104
01416 6724 device=72,func=4
01417 0331 AND PC 131
01420 6305 device=30,func=5
01421 4640 JMS PC I 040
01422 4324 JMS PC 124
01423 6656 device=65,func=6
01424 6612 device=61,func=2
01425 3257 DCA PC 057
01426 6301 device=30,func=1
01427 4714 JMS PC I 114
01430 6304 device=30,func=4
01431 3240 DCA PC 040
01432 5317 JMP PC 117
01433 0322 AND PC 122
01434 6316 device=31,func=6
01435 6725 device=72,func=5
01436 6702 device=70,func=2
01437 1305 TAD PC 105
01440 5723 JMP PC I 123
01441 0240 AND PC 040
01442 5655 JMP PC I 055
01443 0264 AND PC 064
01444 5271 JMP PC 071
01445 7265 OPR CLA CMA CML RAL IAC 
01446 6240 device=24,func=0
01447 7716 OPR CLA SPA OSR HLT 
01450 6240 device=24,func=0
01451 4723 JMS PC I 123
01452 5307 JMP PC 107
01453 7316 OPR CLA CLL RAR RAL BSW 
01454 5215 JMP PC 015
01455 7612 OPR CLA HLT 
01456 5311 JMP PC 111
01457 0306 AND PC 106
01460 6325 device=32,func=5
01461 2723 ISZ PC I 123
01462 6304 device=30,func=4
01463 3240 DCA PC 040
01464 5317 JMP PC 117
01465 0322 AND PC 122
01466 6263 device=26,func=3
01467 2240 ISZ PC 040
01470 6311 device=31,func=1
01471 4707 JMS PC I 107
01472 5724 JMP PC I 124
01473 5323 JMP PC 123
01474 6240 device=24,func=0
01475 2704 ISZ PC I 104
01476 6714 device=71,func=4
01477 2305 ISZ PC 105
01500 5705 JMP PC I 105
01501 3240 DCA PC 040
01502 5660 JMP PC I 060
01503 0263 AND PC 063
01504 5673 JMP PC I 073
01505 2255 ISZ PC 055
01506 5675 JMP PC I 075
01507 1655 TAD PC I 055
01510 6240 device=24,func=0
01511 4704 JMS PC I 104
01512 6707 device=70,func=7
01513 2311 ISZ PC 111
01514 6240 device=24,func=0
01515 7703 OPR CLA MQA SCL DIV SHL LSR SCL
01516 6725 device=72,func=5
01517 2316 ISZ PC 116
01520 4256 JMS PC 056
01521 5215 JMP PC 015
01522 4257 JMS PC 057
01523 5215 JMP PC 015
01524 6657 device=65,func=7
01525 2211 ISZ PC 011
01526 5301 JMP PC 101
01527 0304 AND PC 104
01530 6727 device=72,func=7
01531 1317 TAD PC 117
01532 4304 JMS PC 104
01533 5215 JMP PC 015
01534 6257 device=25,func=7
01535 5211 JMP PC 011
01536 5315 JMP PC 115
01537 0323 AND PC 123
01540 6320 device=32,func=0
01541 4722 JMS PC I 122
01542 6316 device=31,func=6
01543 2324 ISZ PC 124
01544 5215 JMP PC 015
01545 7612 OPR CLA HLT 
01546 5211 JMP PC 011
01547 0240 AND PC 040
01550 6240 device=24,func=0
01551 2722 ISZ PC I 122
01552 6724 device=72,func=4
01553 1325 TAD PC 125
01554 5316 JMP PC 116
01555 7611 OPR CLA SCL DIV SHL LSR NMI
01556 5701 JMP PC I 101
01557 6703 device=70,func=3
01560 4260 JMS PC 060
01561 5215 JMP PC 015
01562 4215 JMS PC 015
01563 4612 JMS PC I 012
01564 5666 JMP PC I 066
01565 1660 TAD PC I 060
01566 4260 JMS PC 060
01567 4611 JMS PC I 011
01570 5657 JMP PC I 057
01571 0655 AND PC I 055
01572 5660 JMP PC I 060
01573 0260 AND PC 060
01574 6211 device=21,func=1
01575 7703 OPR CLA MQA SCL DIV SHL LSR SCL
01576 6316 device=31,func=6
01577 2726 ISZ PC I 126
01600 6322 device=32,func=2
01601 4723 JMS PC I 123
01602 5317 JMP PC 117
01603 0316 AND PC 116
01604 6303 device=30,func=3
01605 7317 OPR CLA CLL RAR RAL BSW IAC 
01606 6323 device=32,func=3
01607 0724 AND PC I 124
01610 6716 device=71,func=6
01611 1724 TAD PC I 124
01612 4215 JMS PC 015
01613 4612 JMS PC I 012
01614 5667 JMP PC I 067
01615 1666 TAD PC I 066
01616 4264 JMS PC 064
01617 4611 JMS PC I 011
01620 5657 JMP PC I 057
01621 0655 AND PC I 055
01622 4260 JMS PC 060
01623 6660 device=66,func=0
01624 5612 JMP PC I 012
01625 3611 DCA PC I 011
01626 5667 JMP PC I 067
01627 3266 DCA PC 066
01630 5211 JMP PC 011
01631 7611 OPR CLA SCL DIV SHL LSR NMI
01632 5655 JMP PC I 055
01633 0261 AND PC 061
01634 4215 JMS PC 015
01635 4612 JMS PC I 012
01636 5667 JMP PC I 067
01637 3667 DCA PC I 067
01640 4267 JMS PC 067
01641 4611 JMS PC I 011
01642 5657 JMP PC I 057
01643 0655 AND PC I 055
01644 4215 JMS PC 015
01645 4612 JMS PC I 012
01646 6324 device=32,func=4
01647 2301 ISZ PC 101
01650 4240 JMS PC 040
01651 4656 JMS PC I 056
01652 6611 device=61,func=1
01653 2657 ISZ PC I 057
01654 6323 device=32,func=3
01655 2305 ISZ PC 105
01656 6240 device=24,func=0
01657 7706 OPR CLA SMA OSR HLT 
01660 6322 device=32,func=2
01661 1640 TAD PC I 040
01662 6717 device=71,func=7
01663 3316 DCA PC 116
01664 6256 device=25,func=6
01665 1640 TAD PC I 040
01666 6717 device=71,func=7
01667 1716 TAD PC I 116
01670 6324 device=32,func=4
01671 7301 OPR CLA CLL IAC 
01672 4324 JMS PC 124
01673 6723 device=72,func=3
01674 5612 JMP PC I 012
01675 0211 AND PC 011
01676 5211 JMP PC 011
01677 7611 OPR CLA SCL DIV SHL LSR NMI
01700 6304 device=30,func=4
01701 3711 DCA PC I 111
01702 5311 JMP PC 111
01703 0324 AND PC 124
01704 6302 device=30,func=2
01705 2303 ISZ PC 103
01706 6240 device=24,func=0
01707 7724 OPR CLA SMA SNL OSR 
01710 6240 device=24,func=0
01711 2702 ISZ PC I 102
01712 6640 device=64,func=0
01713 4724 JMS PC I 124
01714 6320 device=32,func=0
01715 2305 ISZ PC 105
01716 4215 JMS PC 015
01717 4612 JMS PC I 012
01720 4260 JMS PC 060
01721 4611 JMS PC I 011
01722 6257 device=25,func=7
01723 7703 OPR CLA MQA SCL DIV SHL LSR SCL
01724 6725 device=72,func=5
01725 2316 ISZ PC 116
01726 4305 JMS PC 105
01727 6722 device=72,func=2
01730 5612 JMP PC I 012
01731 1211 TAD PC 011
01732 4266 JMS PC 066
01733 4660 JMS PC I 060
01734 6611 device=61,func=1
01735 2257 ISZ PC 057
01736 6317 device=31,func=7
01737 6640 device=64,func=0
01740 6301 device=30,func=1
01741 2713 ISZ PC I 113
01742 5240 JMP PC 040
01743 0301 AND PC 101
01744 6303 device=30,func=3
01745 0710 AND PC I 110
01746 4322 JMS PC 122
01747 6656 device=65,func=6
01750 5612 JMP PC I 012
01751 0211 AND PC 011
01752 5211 JMP PC 011
01753 7611 OPR CLA SCL DIV SHL LSR NMI
01754 6723 device=72,func=3
01755 3301 DCA PC 101
01756 6305 device=30,func=5
01757 0640 AND PC I 040
01760 6322 device=32,func=2
01761 0705 AND PC I 105
01762 4215 JMS PC 015
01763 4612 JMS PC I 012
01764 4255 JMS PC 055
01765 4664 JMS PC I 064
01766 6211 device=21,func=1
01767 2257 ISZ PC 057
01770 6311 device=31,func=1
01771 4707 JMS PC I 107
01772 5324 JMP PC 124
01773 0323 AND PC 123
01774 5324 JMP PC 124
01775 0317 AND PC 117
01776 5302 JMP PC 102
01777 0305 AND PC 105
02000 6724 device=72,func=4
02001 0331 AND PC 131
02002 5305 JMP PC 105
02003 0304 AND PC 104
02004 5650 JMP PC I 050
02005 2255 ISZ PC 055
02006 5654 JMP PC I 054
02007 1655 TAD PC I 055
02010 5654 JMP PC I 054
02011 1255 TAD PC 055
02012 4251 JMS PC 051
02013 5215 JMP PC 015
02014 6320 device=32,func=0
02015 4722 JMS PC I 122
02016 6316 device=31,func=6
02017 2324 ISZ PC 124
02020 5654 JMP PC I 054
02021 0211 AND PC 011
02022 5211 JMP PC 011
02023 7611 OPR CLA SCL DIV SHL LSR NMI
02024 6705 device=70,func=5
02025 2316 ISZ PC 116
02026 5305 JMP PC 105
02027 0322 AND PC 122
02030 6727 device=72,func=7
02031 2311 ISZ PC 111
02032 6710 device=71,func=0
02033 3640 DCA PC I 040
02034 6317 device=31,func=7
02035 2322 ISZ PC 122
02036 6240 device=24,func=0
02037 7311 OPR CLA CLL RAR IAC 
02040 6240 device=24,func=0
02041 1701 TAD PC I 101
02042 4215 JMS PC 015
02043 4612 JMS PC I 012
02044 6304 device=30,func=4
02045 0703 AND PC I 103
02046 6640 device=64,func=0
02047 1320 TAD PC 120
02050 6711 device=71,func=1
02051 2316 ISZ PC 116
02052 5704 JMP PC I 104
02053 1255 TAD PC 055
02054 4215 JMS PC 015
02055 4612 JMS PC I 012
02056 6324 device=32,func=4
02057 2301 ISZ PC 101
02060 6640 device=64,func=0
02061 1320 TAD PC 120
02062 6711 device=71,func=1
02063 2316 ISZ PC 116
02064 5704 JMP PC I 104
02065 0655 AND PC I 055
02066 6611 device=61,func=1
02067 1657 TAD PC I 057
02070 5305 JMP PC 105
02071 0324 AND PC 124
02072 5325 JMP PC 125
02073 0320 AND PC 120
02074 6703 device=70,func=3
02075 2717 ISZ PC I 117
02076 4316 JMS PC 116
02077 6724 device=72,func=4
02100 6212 device=21,func=2
02101 2211 ISZ PC 011
02102 5303 JMP PC 103
02103 0301 AND PC 101
02104 6320 device=32,func=0
02105 4722 JMS PC I 122
02106 6316 device=31,func=6
02107 2324 ISZ PC 124
02110 4255 JMS PC 055
02111 6664 device=66,func=4
02112 6212 device=21,func=2
02113 2211 ISZ PC 011
02114 5303 JMP PC 103
02115 0301 AND PC 101
02116 6320 device=32,func=0
02117 4722 JMS PC I 122
02120 6316 device=31,func=6
02121 2324 ISZ PC 124
02122 4255 JMS PC 055
02123 4665 JMS PC I 065
02124 6257 device=25,func=7
02125 6303 device=30,func=3
02126 6705 device=70,func=5
02127 1301 TAD PC 101
02130 6240 device=24,func=0
02131 1702 TAD PC I 102
02132 4304 JMS PC 104
02133 5215 JMP PC 015
02134 6211 device=21,func=1
02135 0724 AND PC I 124
02136 6704 device=70,func=4
02137 0240 AND PC 040
02140 6322 device=32,func=2
02141 7311 OPR CLA CLL RAR IAC 
02142 5324 JMP PC 124
02143 6704 device=70,func=4
02144 5266 JMP PC 066
02145 7611 OPR CLA SCL DIV SHL LSR NMI
02146 6706 device=70,func=6
02147 2305 ISZ PC 105
02150 5303 JMP PC 103
02151 0310 AND PC 110
02152 6703 device=70,func=3
02153 1325 TAD PC 125
02154 5322 JMP PC 122
02155 0256 AND PC 056
02156 6303 device=30,func=3
02157 7317 OPR CLA CLL RAR RAL BSW IAC 
02160 5326 JMP PC 126
02161 0256 AND PC 056
02162 6303 device=30,func=3
02163 7317 OPR CLA CLL RAR RAL BSW IAC 
02164 5323 JMP PC 123
02165 7324 OPR CLA CLL CML RAL 
02166 4215 JMS PC 015
02167 4612 JMS PC I 012
02170 6324 device=32,func=4
02171 2301 ISZ PC 101
02172 6640 device=64,func=0
02173 1320 TAD PC 120
02174 6711 device=71,func=1
02175 2316 ISZ PC 116
02176 5704 JMP PC I 104
02177 2255 ISZ PC 055
02200 6211 device=21,func=1
02201 1257 TAD PC 057
02202 6331 device=33,func=1
02203 0640 AND PC I 040
02204 6304 device=30,func=4
02205 4704 JMS PC I 104
02206 5316 JMP PC 116
02207 0307 AND PC 107
02210 6703 device=70,func=3
02211 2717 ISZ PC I 117
02212 5316 JMP PC 116
02213 0324 AND PC 124
02214 5324 JMP PC 124
02215 0317 AND PC 117
02216 6324 device=32,func=4
02217 2301 ISZ PC 101
02220 4215 JMS PC 015
02221 4612 JMS PC I 012
02222 6304 device=30,func=4
02223 0703 AND PC I 103
02224 5240 JMP PC 040
02225 5656 JMP PC I 056
02226 4261 JMS PC 061
02227 5215 JMP PC 015
02230 6211 device=21,func=1
02231 6310 device=31,func=0
02232 4324 JMS PC 124
02233 5215 JMP PC 015
02234 6211 device=21,func=1
02235 6303 device=30,func=3
02236 4314 JMS PC 114
02237 5215 JMP PC 015
02240 6211 device=21,func=1
02241 0724 AND PC I 124
02242 6704 device=70,func=4
02243 0240 AND PC 040
02244 6322 device=32,func=2
02245 7311 OPR CLA CLL RAR IAC 
02246 5324 JMP PC 124
02247 6704 device=70,func=4
02250 5262 JMP PC 062
02251 7611 OPR CLA SCL DIV SHL LSR NMI
02252 6326 device=32,func=6
02253 6301 device=30,func=1
02254 5325 JMP PC 125
02255 0305 AND PC 105
02256 6255 device=25,func=5
02257 1640 TAD PC I 040
02260 6717 device=71,func=7
02261 1716 TAD PC I 116
02262 6324 device=32,func=4
02263 7301 OPR CLA CLL IAC 
02264 4324 JMS PC 124
02265 5215 JMP PC 015
02266 6211 device=21,func=1
02267 7323 OPR CLA CLL CML BSW IAC 
02270 4314 JMS PC 114
02271 4611 JMS PC I 011
02272 6657 device=65,func=7
02273 3317 DCA PC 117
02274 6305 device=30,func=5
02275 3322 DCA PC 122
02276 6714 device=71,func=4
02277 3717 DCA PC I 117
02300 4277 JMS PC 077
02301 5215 JMP PC 015
02302 6211 device=21,func=1
02303 6712 device=71,func=2
02304 5320 JMP PC 120
02305 7240 OPR CLA CMA 
02306 4253 JMS PC 053
02307 4664 JMS PC I 064
02310 6211 device=21,func=1
02311 7257 OPR CLA CMA RAR RAL BSW IAC 
02312 6717 device=71,func=7
02313 2254 ISZ PC 054
02314 6331 device=33,func=1
02315 2720 ISZ PC I 120
02316 6640 device=64,func=0
02317 2311 ISZ PC 111
02320 4215 JMS PC 015
02321 4612 JMS PC I 012
02322 6711 device=71,func=1
02323 5323 JMP PC 123
02324 6640 device=64,func=0
02325 1320 TAD PC 120
02326 6711 device=71,func=1
02327 2316 ISZ PC 116
02330 5704 JMP PC I 104
02331 2655 ISZ PC I 055
02332 6611 device=61,func=1
02333 4657 JMS PC I 057
02334 5305 JMP PC 105
02335 6323 device=32,func=3
02336 6716 device=71,func=6
02337 4305 JMS PC 105
02340 6724 device=72,func=4
02341 2240 ISZ PC 040
02342 4322 JMS PC 122
02343 6731 device=73,func=1
02344 6212 device=21,func=2
02345 2211 ISZ PC 011
02346 5303 JMP PC 103
02347 0301 AND PC 101
02350 6320 device=32,func=0
02351 4722 JMS PC I 122
02352 6316 device=31,func=6
02353 2324 ISZ PC 124
02354 4255 JMS PC 055
02355 6662 device=66,func=2
02356 6212 device=21,func=2
02357 5211 JMP PC 011
02360 5315 JMP PC 115
02361 0320 AND PC 120
02362 6320 device=32,func=0
02363 4722 JMS PC I 122
02364 6716 device=71,func=6
02365 2324 ISZ PC 124
02366 4253 JMS PC 053
02367 6665 device=66,func=5
02370 6212 device=21,func=2
02371 1611 TAD PC I 011
02372 4314 JMS PC 114
02373 6701 device=70,func=1
02374 6612 device=61,func=2
02375 2211 ISZ PC 011
02376 5301 JMP PC 101
02377 0304 AND PC 104
02400 6320 device=32,func=0
02401 4722 JMS PC I 122
02402 6316 device=31,func=6
02403 2324 ISZ PC 124
02404 4255 JMS PC 055
02405 4665 JMS PC I 065
02406 6257 device=25,func=7
02407 1702 TAD PC I 102
02410 4304 JMS PC 104
02411 5215 JMP PC 015
02412 6211 device=21,func=1
02413 0724 AND PC I 124
02414 6704 device=70,func=4
02415 0240 AND PC 040
02416 6322 device=32,func=2
02417 7311 OPR CLA CLL RAR IAC 
02420 5324 JMP PC 124
02421 6704 device=70,func=4
02422 5263 JMP PC 063
02423 7611 OPR CLA SCL DIV SHL LSR NMI
02424 5653 JMP PC I 053
02425 3262 DCA PC 062
02426 4260 JMS PC 060
02427 5215 JMP PC 015
02430 6211 device=21,func=1
02431 6712 device=71,func=2
02432 6723 device=72,func=3
02433 2240 ISZ PC 040
02434 6331 device=33,func=1
02435 2720 ISZ PC I 120
02436 4215 JMS PC 015
02437 4612 JMS PC I 012
02440 6711 device=71,func=1
02441 5323 JMP PC 123
02442 6640 device=64,func=0
02443 1320 TAD PC 120
02444 6711 device=71,func=1
02445 2316 ISZ PC 116
02446 5704 JMP PC I 104
02447 2255 ISZ PC 055
02450 4215 JMS PC 015
02451 4612 JMS PC I 012
02452 6712 device=71,func=2
02453 0315 AND PC 115
02454 6640 device=64,func=0
02455 1320 TAD PC 120
02456 6711 device=71,func=1
02457 2316 ISZ PC 116
02460 5704 JMP PC I 104
02461 2253 ISZ PC 053
02462 6211 device=21,func=1
02463 7257 OPR CLA CMA RAR RAL BSW IAC 
02464 6705 device=70,func=5
02465 2330 ISZ PC 130
02466 6240 device=24,func=0
02467 4704 JMS PC I 104
02470 6707 device=70,func=7
02471 2311 ISZ PC 111
02472 4215 JMS PC 015
02473 4612 JMS PC I 012
02474 6712 device=71,func=2
02475 0315 AND PC 115
02476 5240 JMP PC 040
02477 0311 AND PC 111
02500 6320 device=32,func=0
02501 4722 JMS PC I 122
02502 6316 device=31,func=6
02503 2324 ISZ PC 124
02504 4215 JMS PC 015
02505 6212 device=21,func=2
02506 5657 JMP PC I 057
02507 0260 AND PC 060
02510 6265 device=26,func=5
02511 1240 TAD PC 040
02512 6302 device=30,func=2
02513 0716 AND PC I 116
02514 5322 JMP PC 122
02515 0331 AND PC 131
02516 5324 JMP PC 124
02517 0317 AND PC 117
02520 6717 device=71,func=7
02521 2303 ISZ PC 103
02522 5301 JMP PC 101
02523 0314 AND PC 114
02524 6303 device=30,func=3
02525 7317 OPR CLA CLL RAR RAL BSW IAC 
02526 6726 device=72,func=6
02527 1305 TAD PC 105
02530 6323 device=32,func=3
02531 7711 OPR CLA MQA SCL DIV SHL LSR NMI
02532 6316 device=31,func=6
02533 0640 AND PC I 040
02534 5316 JMP PC 116
02535 0304 AND PC 104
02536 6320 device=32,func=0
02537 4722 JMS PC I 122
02540 4316 JMS PC 116
02541 6724 device=72,func=4
02542 6612 device=61,func=2
02543 1257 TAD PC 057
02544 6717 device=71,func=7
02545 2325 ISZ PC 125
02546 6311 device=31,func=1
02547 2716 ISZ PC I 116
02550 6640 device=64,func=0
02551 1320 TAD PC 120
02552 6711 device=71,func=1
02553 2316 ISZ PC 116
02554 6723 device=72,func=3
02555 2240 ISZ PC 040
02556 5310 JMP PC 110
02557 0305 AND PC 105
02560 5301 JMP PC 101
02561 0303 AND PC 103
02562 5311 JMP PC 111
02563 0316 AND PC 116
02564 6717 device=71,func=7
02565 2303 ISZ PC 103
02566 5301 JMP PC 101
02567 6314 device=31,func=4
02570 6240 device=24,func=0
02571 7716 OPR CLA SPA OSR HLT 
02572 6240 device=24,func=0
02573 4723 JMS PC I 123
02574 5307 JMP PC 107
02575 7316 OPR CLA CLL RAR RAL BSW 
02576 5215 JMP PC 015
02577 7612 OPR CLA HLT 
02600 5215 JMP PC 015
02601 7612 OPR CLA HLT 
02602 6211 device=21,func=1
02603 0724 AND PC I 124
02604 6704 device=70,func=4
02605 3640 DCA PC I 040
02606 6317 device=31,func=7
02607 2322 ISZ PC 122
02610 5215 JMP PC 015
02611 7612 OPR CLA HLT 
02612 6211 device=21,func=1
02613 6712 device=71,func=2
02614 6723 device=72,func=3
02615 0240 AND PC 040
02616 6322 device=32,func=2
02617 7311 OPR CLA CLL RAR IAC 
02620 4324 JMS PC 124
02621 6670 device=67,func=0
02622 4212 JMS PC 012
02623 4657 JMS PC I 057
02624 5240 JMP PC 040
02625 0240 AND PC 040
02626 6722 device=72,func=2
02627 2305 ISZ PC 105
02630 6325 device=32,func=5
02631 7322 OPR CLA CLL CML BSW 
02632 6211 device=21,func=1
02633 0657 AND PC I 057
02634 5703 JMP PC I 103
02635 0275 AND PC 075
02636 5215 JMP PC 015
02637 7612 OPR CLA HLT 
02640 4215 JMS PC 015
02641 4612 JMS PC I 012
02642 5662 JMP PC I 062
02643 0266 AND PC 066
02644 4215 JMS PC 015
02645 4612 JMS PC I 012
02646 4267 JMS PC 067
02647 4611 JMS PC I 011
02650 6257 device=25,func=7
02651 0715 AND PC I 115
02652 4323 JMS PC 123
02653 6713 device=71,func=3
02654 5612 JMP PC I 012
02655 0211 AND PC 011
02656 5211 JMP PC 011
02657 7611 OPR CLA SCL DIV SHL LSR NMI
02660 6304 device=30,func=4
02661 3711 DCA PC I 111
02662 5311 JMP PC 111
02663 0324 AND PC 124
02664 6703 device=70,func=3
02665 2717 ISZ PC I 117
02666 6316 device=31,func=6
02667 2724 ISZ PC I 124
02670 4322 JMS PC 122
02671 5215 JMP PC 015
02672 5611 JMP PC I 011
02673 2255 ISZ PC 055
02674 5211 JMP PC 011
02675 7611 OPR CLA SCL DIV SHL LSR NMI
02676 6243 device=24,func=3
02677 7640 OPR CLA SZA 
02700 6306 device=30,func=6
02701 2240 ISZ PC 040
02702 6311 device=31,func=1
02703 4707 JMS PC I 107
02704 4324 JMS PC 124
02705 6723 device=72,func=3
02706 5612 JMP PC I 012
02707 0211 AND PC 011
02710 5211 JMP PC 011
02711 7611 OPR CLA SCL DIV SHL LSR NMI
02712 6324 device=32,func=4
02713 6705 device=70,func=5
02714 6720 device=72,func=0
02715 1317 TAD PC 117
02716 6701 device=70,func=1
02717 4722 JMS PC I 122
02720 6615 device=61,func=5
02721 0212 AND PC 012
02722 6322 device=32,func=2
02723 7311 OPR CLA CLL RAR IAC 
02724 5324 JMP PC 124
02725 6270 device=27,func=0
02726 4211 JMS PC 011
02727 6660 device=66,func=0
02730 6612 device=61,func=2
02731 1211 TAD PC 011
02732 5301 JMP PC 101
02733 0314 AND PC 114
02734 6303 device=30,func=3
02735 6314 device=31,func=4
02736 4215 JMS PC 015
02737 4612 JMS PC I 012
02740 6304 device=30,func=4
02741 0703 AND PC I 103
02742 6640 device=64,func=0
02743 1320 TAD PC 120
02744 6711 device=71,func=1
02745 2316 ISZ PC 116
02746 5670 JMP PC I 070
02747 0655 AND PC I 055
02750 4215 JMS PC 015
02751 4612 JMS PC I 012
02752 6324 device=32,func=4
02753 2301 ISZ PC 101
02754 6640 device=64,func=0
02755 1320 TAD PC 120
02756 6711 device=71,func=1
02757 2316 ISZ PC 116
02760 5670 JMP PC I 070
02761 1255 TAD PC 055
02762 4215 JMS PC 015
02763 4612 JMS PC I 012
02764 6304 device=30,func=4
02765 0703 AND PC I 103
02766 6640 device=64,func=0
02767 1320 TAD PC 120
02770 6711 device=71,func=1
02771 2316 ISZ PC 116
02772 5670 JMP PC I 070
02773 1655 TAD PC I 055
02774 6611 device=61,func=1
02775 1657 TAD PC I 057
02776 5305 JMP PC 105
02777 0324 AND PC 124
03000 5325 JMP PC 125
03001 0320 AND PC 120
03002 6703 device=70,func=3
03003 2717 ISZ PC I 117
03004 4316 JMS PC 116
03005 6724 device=72,func=4
03006 6612 device=61,func=2
03007 2211 ISZ PC 011
03010 5301 JMP PC 101
03011 0304 AND PC 104
03012 6320 device=32,func=0
03013 4722 JMS PC I 122
03014 5716 JMP PC I 116
03015 4324 JMS PC 124
03016 4255 JMS PC 055
03017 6661 device=66,func=1
03020 6612 device=61,func=2
03021 1211 TAD PC 011
03022 4301 JMS PC 101
03023 6714 device=71,func=4
03024 6612 device=61,func=2
03025 1211 TAD PC 011
03026 4324 JMS PC 124
03027 6714 device=71,func=4
03030 6212 device=21,func=2
03031 2211 ISZ PC 011
03032 5303 JMP PC 103
03033 0301 AND PC 101
03034 6320 device=32,func=0
03035 4722 JMS PC I 122
03036 5716 JMP PC I 116
03037 4324 JMS PC 124
03040 4255 JMS PC 055
03041 6661 device=66,func=1
03042 6612 device=61,func=2
03043 2211 ISZ PC 011
03044 5301 JMP PC 101
03045 0304 AND PC 104
03046 6320 device=32,func=0
03047 4722 JMS PC I 122
03050 5716 JMP PC I 116
03051 4324 JMS PC 124
03052 4255 JMS PC 055
03053 6661 device=66,func=1
03054 4212 JMS PC 012
03055 4611 JMS PC I 011
03056 5316 JMP PC 116
03057 0304 AND PC 104
03060 6320 device=32,func=0
03061 4722 JMS PC I 122
03062 5716 JMP PC I 116
03063 4324 JMS PC 124
03064 4255 JMS PC 055
03065 4664 JMS PC I 064
03066 6257 device=25,func=7
03067 0715 AND PC I 115
03070 4323 JMS PC 123
03071 6713 device=71,func=3
03072 6612 device=61,func=2
03073 2211 ISZ PC 011
03074 5301 JMP PC 101
03075 0304 AND PC 104
03076 6320 device=32,func=0
03077 4722 JMS PC I 122
03100 5716 JMP PC I 116
03101 4324 JMS PC 124
03102 4255 JMS PC 055
03103 4665 JMS PC I 065
03104 6257 device=25,func=7
03105 0715 AND PC I 115
03106 5313 JMP PC 113
03107 0305 AND PC 105
03110 6301 device=30,func=1
03111 1723 TAD PC I 123
03112 4311 JMS PC 111
03113 6711 device=71,func=1
03114 6212 device=21,func=2
03115 5211 JMP PC 011
03116 5315 JMP PC 115
03117 0323 AND PC 123
03120 6724 device=72,func=4
03121 0331 AND PC 131
03122 4305 JMS PC 105
03123 5215 JMP PC 015
03124 6611 device=61,func=1
03125 1711 TAD PC I 111
03126 6732 device=73,func=2
03127 0240 AND PC 040
03130 6322 device=32,func=2
03131 7311 OPR CLA CLL RAR IAC 
03132 5324 JMP PC 124
03133 6670 device=67,func=0
03134 5263 JMP PC 063
03135 7611 OPR CLA SCL DIV SHL LSR NMI
03136 6264 device=26,func=4
03137 2240 ISZ PC 040
03140 6317 device=31,func=7
03141 2716 ISZ PC I 116
03142 4277 JMS PC 077
03143 5215 JMP PC 015
03144 6211 device=21,func=1
03145 6712 device=71,func=2
03146 6720 device=72,func=0
03147 0240 AND PC 040
03150 6322 device=32,func=2
03151 7311 OPR CLA CLL RAR IAC 
03152 5324 JMP PC 124
03153 5670 JMP PC I 070
03154 5265 JMP PC 065
03155 7611 OPR CLA SCL DIV SHL LSR NMI
03156 6716 device=71,func=6
03157 2317 ISZ PC 117
03160 6240 device=24,func=0
03161 2731 ISZ PC I 131
03162 4324 JMS PC 124
03163 5215 JMP PC 015
03164 6211 device=21,func=1
03165 6712 device=71,func=2
03166 6320 device=32,func=0
03167 4640 JMS PC I 040
03170 6640 device=64,func=0
03171 1320 TAD PC 120
03172 6711 device=71,func=1
03173 2316 ISZ PC 116
03174 4270 JMS PC 070
03175 5215 JMP PC 015
03176 5614 JMP PC I 014
03177 0257 AND PC 057
03200 5260 JMP PC 060
03201 0266 AND PC 066
03202 6240 device=24,func=0
03203 3711 DCA PC I 111
03204 6710 device=71,func=0
03205 1640 TAD PC I 040
03206 6320 device=32,func=0
03207 2705 ISZ PC I 105
03210 6704 device=70,func=4
03211 1240 TAD PC 040
03212 6305 device=30,func=5
03213 2301 ISZ PC 101
03214 5305 JMP PC 105
03215 0322 AND PC 122
03216 6323 device=32,func=3
03217 1325 TAD PC 125
03220 6722 device=72,func=2
03221 2717 ISZ PC I 117
03222 6324 device=32,func=4
03223 7311 OPR CLA CLL RAR IAC 
03224 4305 JMS PC 105
03225 5215 JMP PC 015
03226 6257 device=25,func=7
03227 7305 OPR CLA CLL RAL IAC 
03230 6724 device=72,func=4
03231 1305 TAD PC 105
03232 6240 device=24,func=0
03233 4727 JMS PC I 127
03234 5324 JMP PC 124
03235 0310 AND PC 110
03236 5701 JMP PC I 101
03237 6703 device=70,func=3
03240 6660 device=66,func=0
03241 1273 TAD PC 073
03242 6717 device=71,func=7
03243 2325 ISZ PC 125
03244 6311 device=31,func=1
03245 2716 ISZ PC I 116
03246 6240 device=24,func=0
03247 7311 OPR CLA CLL RAR IAC 
03250 6311 device=31,func=1
03251 4724 JMS PC I 124
03252 6301 device=30,func=1
03253 4714 JMS PC I 114
03254 6732 device=73,func=2
03255 1705 TAD PC I 105
03256 6640 device=64,func=0
03257 1710 TAD PC I 110
03260 6322 device=32,func=2
03261 2656 ISZ PC I 056
03262 6301 device=30,func=1
03263 4303 JMS PC 103
03264 6240 device=24,func=0
03265 2722 ISZ PC I 122
03266 6705 device=70,func=5
03267 2316 ISZ PC 116
03270 4322 JMS PC 122
03271 6731 device=73,func=1
03272 6212 device=21,func=2
03273 0657 AND PC I 057
03274 6306 device=30,func=6
03275 2724 ISZ PC I 124
03276 6322 device=32,func=2
03277 0640 AND PC I 040
03300 6316 device=31,func=6
03301 2640 ISZ PC I 040
03302 5316 JMP PC 116
03303 6704 device=70,func=4
03304 5317 JMP PC 117
03305 6706 device=70,func=6
03306 6724 device=72,func=4
03307 0301 AND PC 101
03310 6305 device=30,func=5
03311 1640 TAD PC I 040
03312 6317 device=31,func=7
03313 2316 ISZ PC 116
03314 6311 device=31,func=1
03315 4724 JMS PC I 124
03316 5317 JMP PC 117
03317 0316 AND PC 116
03320 6250 device=25,func=0
03321 4724 JMS PC I 124
03322 5315 JMP PC 115
03323 6705 device=70,func=5
03324 6717 device=71,func=7
03325 2325 ISZ PC 125
03326 4251 JMS PC 051
03327 5215 JMP PC 015
03330 6257 device=25,func=7
03331 4327 JMS PC 127
03332 5305 JMP PC 105
03333 0316 AND PC 116
03334 6323 device=32,func=3
03335 7724 OPR CLA SMA SNL OSR 
03336 6320 device=32,func=0
03337 2720 ISZ PC I 120
03340 6304 device=30,func=4
03341 4640 JMS PC I 040
03342 6716 device=71,func=6
03343 2240 ISZ PC 040
03344 6301 device=30,func=1
03345 2720 ISZ PC I 120
03346 6240 device=24,func=0
03347 7715 OPR CLA MQA SCL DIV SHL LSR ASR
03350 6324 device=32,func=4
03351 7711 OPR CLA MQA SCL DIV SHL LSR NMI
03352 6316 device=31,func=6
03353 4640 JMS PC I 040
03354 6724 device=72,func=4
03355 1640 TAD PC I 040
03356 6311 device=31,func=1
03357 7307 OPR CLA CLL RAL BSW IAC 
03360 6701 device=70,func=1
03361 1714 TAD PC I 114
03362 6240 device=24,func=0
03363 4724 JMS PC I 124
03364 6315 device=31,func=5
03365 7705 OPR CLA MQA SCL DIV SHL LSR MUY
03366 5325 JMP PC 125
03367 0324 AND PC 124
03370 6324 device=32,func=4
03371 2710 ISZ PC I 110
03372 5215 JMP PC 015
03373 7612 OPR CLA HLT 
03374 6716 device=71,func=6
03375 4305 JMS PC 105
03376 6324 device=32,func=4
03377 2640 ISZ PC I 040
03400 6716 device=71,func=6
03401 1324 TAD PC 124
03402 5331 JMP PC 131
03403 0256 AND PC 056
03404 6324 device=32,func=4
03405 2710 ISZ PC I 110
03406 6240 device=24,func=0
03407 7722 OPR CLA SMA SNL HLT 
03410 6325 device=32,func=5
03411 4724 JMS PC I 124
03412 5316 JMP PC 116
03413 0305 AND PC 105
03414 6710 device=71,func=0
03415 1701 TAD PC I 101
03416 5240 JMP PC 040
03417 0301 AND PC 101
03420 6302 device=30,func=2
03421 4725 JMS PC I 125
03422 5314 JMP PC 114
03423 6724 device=72,func=4
03424 5311 JMP PC 111
03425 0316 AND PC 116
03426 6324 device=32,func=4
03427 6711 device=71,func=1
03430 6311 device=31,func=1
03431 3716 DCA PC I 116
03432 6240 device=24,func=0
03433 7714 OPR CLA SPA OSR 
03434 4317 JMS PC 117
03435 6720 device=72,func=0
03436 6612 device=61,func=2
03437 2257 ISZ PC 057
03440 6710 device=71,func=0
03441 2301 ISZ PC 101
03442 6240 device=24,func=0
03443 4724 JMS PC I 124
03444 6715 device=71,func=5
03445 1705 TAD PC I 105
03446 6640 device=64,func=0
03447 2717 ISZ PC I 117
03450 6324 device=32,func=4
03451 4640 JMS PC I 040
03452 6706 device=70,func=6
03453 2240 ISZ PC 040
03454 5310 JMP PC 110
03455 0305 AND PC 105
03456 6322 device=32,func=2
03457 0705 AND PC I 105
03460 6704 device=70,func=4
03461 1305 TAD PC 105
03462 6640 device=64,func=0
03463 1711 TAD PC I 111
03464 6240 device=24,func=0
03465 7716 OPR CLA SPA OSR HLT 
03466 6724 device=72,func=4
03467 1640 TAD PC I 040
03470 6727 device=72,func=7
03471 2311 ISZ PC 111
03472 6303 device=30,func=3
03473 2710 ISZ PC I 110
03474 6304 device=30,func=4
03475 7640 OPR CLA SZA 
03476 4316 JMS PC 116
03477 6654 device=65,func=4
03500 6212 device=21,func=2
03501 7657 OPR CLA SCA SCL DIV SHL LSR LSR
03502 6322 device=32,func=2
03503 4640 JMS PC I 040
03504 6706 device=70,func=6
03505 2240 ISZ PC 040
03506 5310 JMP PC 110
03507 0305 AND PC 105
03510 6322 device=32,func=2
03511 0705 AND PC I 105
03512 6704 device=70,func=4
03513 1305 TAD PC 105
03514 6240 device=24,func=0
03515 7714 OPR CLA SPA OSR 
03516 6317 device=31,func=7
03517 2723 ISZ PC I 123
03520 6323 device=32,func=3
03521 4640 JMS PC I 040
03522 5324 JMP PC 124
03523 0323 AND PC 123
03524 6306 device=30,func=6
03525 0714 AND PC I 114
03526 6307 device=30,func=7
03527 1240 TAD PC 040
03530 6731 device=73,func=1
03531 1240 TAD PC 040
03532 6325 device=32,func=5
03533 7316 OPR CLA CLL RAR RAL BSW 
03534 6311 device=31,func=1
03535 3716 DCA PC I 116
03536 6640 device=64,func=0
03537 2717 ISZ PC I 117
03540 6324 device=32,func=4
03541 7640 OPR CLA SZA 
03542 6706 device=70,func=6
03543 2240 ISZ PC 040
03544 6301 device=30,func=1
03545 2720 ISZ PC I 120
03546 4256 JMS PC 056
03547 5215 JMP PC 015
03550 4257 JMS PC 057
03551 5215 JMP PC 015
03552 6257 device=25,func=7
03553 5211 JMP PC 011
03554 5315 JMP PC 115
03555 0323 AND PC 123
03556 6710 device=71,func=0
03557 1323 TAD PC 123
03560 6305 device=30,func=5
03561 2301 ISZ PC 101
03562 5215 JMP PC 015
03563 7612 OPR CLA HLT 
03564 6611 device=61,func=1
03565 2717 ISZ PC I 117
03566 6324 device=32,func=4
03567 7640 OPR CLA SZA 
03570 6706 device=70,func=6
03571 2240 ISZ PC 040
03572 6301 device=30,func=1
03573 2720 ISZ PC I 120
03574 6240 device=24,func=0
03575 2722 ISZ PC I 122
03576 6724 device=72,func=4
03577 1325 TAD PC 125
03600 4316 JMS PC 116
03601 5215 JMP PC 015
03602 6257 device=25,func=7
03603 7211 OPR CLA RAR IAC 
03604 6317 device=31,func=7
03605 6722 device=72,func=2
03606 5301 JMP PC 101
03607 0314 AND PC 114
03610 6722 device=72,func=2
03611 2305 ISZ PC 105
03612 6325 device=32,func=5
03613 7322 OPR CLA CLL CML BSW 
03614 6254 device=25,func=4
03615 1640 TAD PC I 040
03616 6710 device=71,func=0
03617 1301 TAD PC 101
03620 6256 device=25,func=6
03621 4640 JMS PC I 040
03622 6316 device=31,func=6
03623 0640 AND PC I 040
03624 4303 JMS PC 103
03625 5215 JMP PC 015
03626 4257 JMS PC 057
03627 5215 JMP PC 015
03630 4215 JMS PC 015
03631 4612 JMS PC I 012
03632 4260 JMS PC 060
03633 4611 JMS PC I 011
03634 6657 device=65,func=7
03635 1725 TAD PC I 125
03636 5305 JMP PC 105
03637 0304 AND PC 104
03640 5301 JMP PC 101
03641 0323 AND PC 123
03642 6324 device=32,func=4
03643 6711 device=71,func=1
03644 6305 device=30,func=5
03645 7655 OPR CLA SCA SCL DIV SHL LSR ASR
03646 5325 JMP PC 125
03647 0324 AND PC 124
03650 6703 device=70,func=3
03651 2717 ISZ PC I 117
03652 4316 JMS PC 116
03653 6724 device=72,func=4
03654 6612 device=61,func=2
03655 1710 TAD PC I 110
03656 6322 device=32,func=2
03657 0705 AND PC I 105
03660 4304 JMS PC 104
03661 4654 JMS PC I 054
03662 4260 JMS PC 060
03663 4611 JMS PC I 011
03664 6257 device=25,func=7
03665 7305 OPR CLA CLL RAL IAC 
03666 6724 device=72,func=4
03667 4722 JMS PC I 122
03670 4215 JMS PC 015
03671 4612 JMS PC I 012
03672 6304 device=30,func=4
03673 0703 AND PC I 103
03674 6640 device=64,func=0
03675 1710 TAD PC I 110
03676 6322 device=32,func=2
03677 0705 AND PC I 105
03700 5704 JMP PC I 104
03701 0655 AND PC I 055
03702 6611 device=61,func=1
03703 1657 TAD PC I 057
03704 5305 JMP PC 105
03705 0324 AND PC 124
03706 5325 JMP PC 125
03707 0320 AND PC 120
03710 6703 device=70,func=3
03711 2717 ISZ PC I 117
03712 4316 JMS PC 116
03713 6724 device=72,func=4
03714 6612 device=61,func=2
03715 1710 TAD PC I 110
03716 6322 device=32,func=2
03717 6306 device=30,func=6
03720 4307 JMS PC 107
03721 4654 JMS PC I 054
03722 4261 JMS PC 061
03723 4611 JMS PC I 011
03724 6257 device=25,func=7
03725 6306 device=30,func=6
03726 5301 JMP PC 101
03727 0301 AND PC 101
03730 6323 device=32,func=3
03731 3711 DCA PC I 111
03732 6316 device=31,func=6
03733 6301 device=30,func=1
03734 6723 device=72,func=3
03735 2240 ISZ PC 040
03736 6317 device=31,func=7
03737 4640 JMS PC I 040
03740 6716 device=71,func=6
03741 2311 ISZ PC 111
03742 6240 device=24,func=0
03743 2722 ISZ PC I 122
03744 6301 device=30,func=1
03745 2704 ISZ PC I 104
03746 4322 JMS PC 122
03747 5215 JMP PC 015
03750 6211 device=21,func=1
03751 0724 AND PC I 124
03752 6304 device=30,func=4
03753 4240 JMS PC 040
03754 6323 device=32,func=3
03755 3322 DCA PC 122
03756 4314 JMS PC 114
03757 4707 JMS PC I 107
03760 6257 device=25,func=7
03761 4324 JMS PC 124
03762 6305 device=30,func=5
03763 2723 ISZ PC I 123
03764 6240 device=24,func=0
03765 7311 OPR CLA CLL RAR IAC 
03766 6723 device=72,func=3
03767 1324 TAD PC 124
03770 6256 device=25,func=6
03771 7703 OPR CLA MQA SCL DIV SHL LSR SCL
03772 6716 device=71,func=6
03773 1324 TAD PC 124
03774 6711 device=71,func=1
03775 2702 ISZ PC I 102
03776 5324 JMP PC 124
03777 0305 AND PC 105
04000 5324 JMP PC 124
04001 0317 AND PC 117
04002 6314 device=31,func=4
04003 7717 OPR CLA MQA SCL DIV SHL LSR LSR
04004 4320 JMS PC 120
04005 5215 JMP PC 015
04006 6611 device=61,func=1
04007 5323 JMP PC 123
04010 6301 device=30,func=1
04011 1640 TAD PC I 040
04012 4314 JMS PC 114
04013 6701 device=70,func=1
04014 6212 device=21,func=2
04015 5211 JMP PC 011
04016 5315 JMP PC 115
04017 0320 AND PC 120
04020 5656 JMP PC I 056
04021 1653 TAD PC I 053
04022 5211 JMP PC 011
04023 7611 OPR CLA SCL DIV SHL LSR NMI
04024 6311 device=31,func=1
04025 4716 JMS PC I 116
04026 6724 device=72,func=4
04027 1240 TAD PC 040
04030 6305 device=30,func=5
04031 2301 ISZ PC 101
04032 4305 JMS PC 105
04033 6722 device=72,func=2
04034 6612 device=61,func=2
04035 1211 TAD PC 011
04036 4323 JMS PC 123
04037 4706 JMS PC I 106
04040 6611 device=61,func=1
04041 1657 TAD PC I 057
04042 6713 device=71,func=3
04043 0311 AND PC 111
04044 4277 JMS PC 077
04045 5215 JMP PC 015
04046 6211 device=21,func=1
04047 6712 device=71,func=2
04050 5320 JMP PC 120
04051 7240 OPR CLA CMA 
04052 4253 JMS PC 053
04053 4665 JMS PC I 065
04054 6211 device=21,func=1
04055 7257 OPR CLA CMA RAR RAL BSW IAC 
04056 5317 JMP PC 117
04057 0254 AND PC 054
04060 6703 device=70,func=3
04061 2717 ISZ PC I 117
04062 5316 JMP PC 116
04063 0324 AND PC 124
04064 6324 device=32,func=4
04065 6711 device=71,func=1
04066 6305 device=30,func=5
04067 7655 OPR CLA SCA SCL DIV SHL LSR ASR
04070 4325 JMS PC 125
04071 6724 device=72,func=4
04072 6212 device=21,func=2
04073 2211 ISZ PC 011
04074 5303 JMP PC 103
04075 0301 AND PC 101
04076 6710 device=71,func=0
04077 1323 TAD PC 123
04100 6306 device=30,func=6
04101 3714 DCA PC I 114
04102 6211 device=21,func=1
04103 1657 TAD PC I 057
04104 6314 device=31,func=4
04105 0705 AND PC I 105
04106 6322 device=32,func=2
04107 3240 DCA PC 040
04110 6306 device=30,func=6
04111 3701 DCA PC I 101
04112 4215 JMS PC 015
04113 4612 JMS PC I 012
04114 5666 JMP PC I 066
04115 0660 AND PC I 060
04116 4266 JMS PC 066
04117 4611 JMS PC I 011
04120 6257 device=25,func=7
04121 2722 ISZ PC I 122
04122 4301 JMS PC 101
04123 6704 device=70,func=4
04124 6212 device=21,func=2
04125 4611 JMS PC I 011
04126 5323 JMP PC 123
04127 0332 AND PC 132
04130 6710 device=71,func=0
04131 1323 TAD PC 123
04132 6305 device=30,func=5
04133 2301 ISZ PC 101
04134 6611 device=61,func=1
04135 1257 TAD PC 057
04136 6705 device=70,func=5
04137 2724 ISZ PC I 124
04140 5322 JMP PC 122
04141 6316 device=31,func=6
04142 6303 device=30,func=3
04143 0710 AND PC I 110
04144 6322 device=32,func=2
04145 4640 JMS PC I 040
04146 6316 device=31,func=6
04147 0640 AND PC I 040
04150 4303 JMS PC 103
04151 5215 JMP PC 015
04152 6211 device=21,func=1
04153 6712 device=71,func=2
04154 6320 device=32,func=0
04155 4640 JMS PC I 040
04156 6640 device=64,func=0
04157 1710 TAD PC I 110
04160 6322 device=32,func=2
04161 0705 AND PC I 105
04162 4304 JMS PC 104
04163 5215 JMP PC 015
04164 6611 device=61,func=1
04165 1711 TAD PC I 111
04166 6332 device=33,func=2
04167 4240 JMS PC 040
04170 6323 device=32,func=3
04171 2722 ISZ PC I 122
04172 5301 JMP PC 101
04173 6704 device=70,func=4
04174 4261 JMS PC 061
04175 5215 JMP PC 015
04176 6211 device=21,func=1
04177 6712 device=71,func=2
04200 6320 device=32,func=0
04201 4240 JMS PC 040
04202 6323 device=32,func=3
04203 3322 DCA PC 122
04204 4314 JMS PC 114
04205 6707 device=70,func=7
04206 6212 device=21,func=2
04207 4611 JMS PC I 011
04210 5323 JMP PC 123
04211 0332 AND PC 132
04212 6710 device=71,func=0
04213 1323 TAD PC 123
04214 6306 device=30,func=6
04215 3714 DCA PC I 114
04216 6611 device=61,func=1
04217 1657 TAD PC I 057
04220 5305 JMP PC 105
04221 0324 AND PC 124
04222 6306 device=30,func=6
04223 0714 AND PC I 114
04224 6707 device=70,func=7
04225 2240 ISZ PC 040
04226 6717 device=71,func=7
04227 1640 TAD PC I 040
04230 6311 device=31,func=1
04231 7307 OPR CLA CLL RAL BSW IAC 
04232 5301 JMP PC 101
04233 0314 AND PC 114
04234 6324 device=32,func=4
04235 6711 device=71,func=1
04236 6705 device=70,func=5
04237 2717 ISZ PC I 117
04240 4324 JMS PC 124
04241 5215 JMP PC 015
04242 6211 device=21,func=1
04243 6712 device=71,func=2
04244 6320 device=32,func=0
04245 4640 JMS PC I 040
04246 6640 device=64,func=0
04247 1710 TAD PC I 110
04250 6322 device=32,func=2
04251 0705 AND PC I 105
04252 5304 JMP PC 104
04253 7611 OPR CLA SCL DIV SHL LSR NMI
04254 6705 device=70,func=5
04255 2317 ISZ PC 117
04256 6240 device=24,func=0
04257 2722 ISZ PC I 122
04260 6724 device=72,func=4
04261 1325 TAD PC 125
04262 4316 JMS PC 116
04263 5215 JMP PC 015
04264 5614 JMP PC I 014
04265 0257 AND PC 057
04266 5260 JMP PC 060
04267 0267 AND PC 067
04270 6324 device=32,func=4
04271 1301 TAD PC 101
04272 6325 device=32,func=5
04273 0714 AND PC I 114
04274 6724 device=72,func=4
04275 1317 TAD PC 117
04276 6240 device=24,func=0
04277 7722 OPR CLA SMA SNL HLT 
04300 6325 device=32,func=5
04301 4724 JMS PC I 124
04302 4316 JMS PC 116
04303 6705 device=70,func=5
04304 6612 device=61,func=2
04305 2257 ISZ PC 057
04306 5310 JMP PC 110
04307 0305 AND PC 105
04310 6325 device=32,func=5
04311 2723 ISZ PC I 123
04312 6322 device=32,func=2
04313 4240 JMS PC 040
04314 5301 JMP PC 101
04315 0323 AND PC 123
04316 5324 JMP PC 124
04317 0317 AND PC 117
04320 6324 device=32,func=4
04321 5701 JMP PC I 101
04322 6305 device=30,func=5
04323 1640 TAD PC I 040
04324 5301 JMP PC 101
04325 0322 AND PC 122
04326 5717 JMP PC I 117
04327 5306 JMP PC 106
04330 5215 JMP PC 015
04331 7612 OPR CLA HLT 
04332 6311 device=31,func=1
04333 1716 TAD PC I 116
04334 6322 device=32,func=2
04335 6705 device=70,func=5
04336 6705 device=70,func=5
04337 2316 ISZ PC 116
04340 6311 device=31,func=1
04341 3716 DCA PC I 116
04342 6240 device=24,func=0
04343 0724 AND PC I 124
04344 6302 device=30,func=2
04345 7303 OPR CLA CLL BSW IAC 
04346 6724 device=72,func=4
04347 3640 DCA PC I 040
04350 6311 device=31,func=1
04351 4324 JMS PC 124
04352 6240 device=24,func=0
04353 0705 AND PC I 105
04354 5303 JMP PC 103
04355 0310 AND PC 110
04356 6311 device=31,func=1
04357 1716 TAD PC I 116
04360 6317 device=31,func=7
04361 4715 JMS PC I 115
04362 5316 JMP PC 116
04363 0307 AND PC 107
04364 6303 device=30,func=3
04365 0710 AND PC I 110
04366 6322 device=32,func=2
04367 1701 TAD PC I 101
04370 6724 device=72,func=4
04371 1305 TAD PC 105
04372 6254 device=25,func=4
04373 1640 TAD PC I 040
04374 6314 device=31,func=4
04375 0705 AND PC I 105
04376 6322 device=32,func=2
04377 7311 OPR CLA CLL RAR IAC 
04400 4307 JMS PC 107
04401 5215 JMP PC 015
04402 6657 device=65,func=7
04403 2311 ISZ PC 111
04404 6240 device=24,func=0
04405 4327 JMS PC 127
04406 5305 JMP PC 105
04407 0316 AND PC 116
04410 6703 device=70,func=3
04411 1301 TAD PC 101
04412 6322 device=32,func=2
04413 0711 AND PC I 111
04414 5307 JMP PC 107
04415 0305 AND PC 105
04416 6640 device=64,func=0
04417 2305 ISZ PC 105
04420 6325 device=32,func=5
04421 7322 OPR CLA CLL CML BSW 
04422 6656 device=65,func=6
04423 2240 ISZ PC 040
04424 5301 JMP PC 101
04425 6702 device=70,func=2
04426 6711 device=71,func=1
04427 2316 ISZ PC 116
04430 6705 device=70,func=5
04431 3322 DCA PC 122
04432 5301 JMP PC 101
04433 0314 AND PC 114
04434 5311 JMP PC 111
04435 0323 AND PC 123
04436 6726 device=72,func=6
04437 1301 TAD PC 101
04440 6311 device=31,func=1
04441 1301 TAD PC 101
04442 5314 JMP PC 114
04443 7305 OPR CLA CLL RAL IAC 
04444 5215 JMP PC 015
04445 7612 OPR CLA HLT 
04446 6301 device=30,func=1
04447 5240 JMP PC 040
04450 5315 JMP PC 115
04451 0323 AND PC 123
04452 5324 JMP PC 124
04453 0317 AND PC 117
04454 6324 device=32,func=4
04455 1301 TAD PC 101
04456 6240 device=24,func=0
04457 4727 JMS PC I 127
04460 5314 JMP PC 114
04461 0314 AND PC 114
04462 6715 device=71,func=5
04463 3317 DCA PC 117
04464 6705 device=70,func=5
04465 2240 ISZ PC 040
04466 5310 JMP PC 110
04467 0305 AND PC 105
04470 6724 device=72,func=4
04471 0331 AND PC 131
04472 6311 device=31,func=1
04473 3716 DCA PC I 116
04474 6240 device=24,func=0
04475 2710 ISZ PC I 110
04476 5301 JMP PC 101
04477 0304 AND PC 104
04500 5324 JMP PC 124
04501 0317 AND PC 117
04502 6324 device=32,func=4
04503 2710 ISZ PC I 110
04504 6240 device=24,func=0
04505 2716 ISZ PC I 116
04506 4330 JMS PC 130
04507 6724 device=72,func=4
04510 6612 device=61,func=2
04511 2257 ISZ PC 057
04512 6701 device=70,func=1
04513 2702 ISZ PC I 102
04514 6714 device=71,func=4
04515 2301 ISZ PC 101
04516 5317 JMP PC 117
04517 0322 AND PC 122
04520 6720 device=72,func=0
04521 1717 TAD PC I 117
04522 6311 device=31,func=1
04523 4724 JMS PC I 124
04524 5317 JMP PC 117
04525 7316 OPR CLA CLL RAR RAL BSW 
04526 5215 JMP PC 015
04527 7612 OPR CLA HLT 
04530 5215 JMP PC 015
04531 7612 OPR CLA HLT 
04532 6211 device=21,func=1
04533 6303 device=30,func=3
04534 4301 JMS PC 101
04535 5215 JMP PC 015
04536 6257 device=25,func=7
04537 5211 JMP PC 011
04540 5315 JMP PC 115
04541 0323 AND PC 123
04542 6324 device=32,func=4
04543 1301 TAD PC 101
04544 5215 JMP PC 015
04545 7612 OPR CLA HLT 
04546 5211 JMP PC 011
04547 0240 AND PC 040
04550 6240 device=24,func=0
04551 2722 ISZ PC I 122
04552 6724 device=72,func=4
04553 1325 TAD PC 125
04554 5316 JMP PC 116
04555 7611 OPR CLA SCL DIV SHL LSR NMI
04556 5701 JMP PC I 101
04557 6703 device=70,func=3
04560 4260 JMS PC 060
04561 5215 JMP PC 015
04562 6615 device=61,func=5
04563 2212 ISZ PC 012
04564 6301 device=30,func=1
04565 1702 TAD PC I 102
04566 5316 JMP PC 116
04567 6324 device=32,func=4
04570 4211 JMS PC 011
04571 6660 device=66,func=0
04572 5212 JMP PC 012
04573 6611 device=61,func=1
04574 4261 JMS PC 061
04575 4660 JMS PC I 060
04576 6611 device=61,func=1
04577 2247 ISZ PC 047
04600 5301 JMP PC 101
04601 0302 AND PC 102
04602 6711 device=71,func=1
04603 2316 ISZ PC 116
04604 6705 device=70,func=5
04605 3322 DCA PC 122
04606 4301 JMS PC 101
04607 6714 device=71,func=4
04610 5612 JMP PC I 012
04611 1211 TAD PC 011
04612 4264 JMS PC 064
04613 4660 JMS PC I 060
04614 6611 device=61,func=1
04615 1657 TAD PC I 057
04616 6320 device=32,func=0
04617 1701 TAD PC I 101
04620 4305 JMS PC 105
04621 5215 JMP PC 015
04622 6324 device=32,func=4
04623 1301 TAD PC 101
04624 5654 JMP PC I 054
04625 0211 AND PC 011
04626 5211 JMP PC 011
04627 7611 OPR CLA SCL DIV SHL LSR NMI
04630 6705 device=70,func=5
04631 2316 ISZ PC 116
04632 5305 JMP PC 105
04633 0322 AND PC 122
04634 6727 device=72,func=7
04635 2311 ISZ PC 111
04636 6310 device=31,func=0
04637 0640 AND PC I 040
04640 5703 JMP PC I 103
04641 6640 device=64,func=0
04642 4260 JMS PC 060
04643 5215 JMP PC 015
04644 6211 device=21,func=1
04645 0724 AND PC I 124
04646 6704 device=70,func=4
04647 2240 ISZ PC 040
04650 6301 device=30,func=1
04651 1702 TAD PC I 102
04652 4316 JMS PC 116
04653 4724 JMS PC I 124
04654 6657 device=65,func=7
04655 2723 ISZ PC I 123
04656 6702 device=70,func=2
04657 1324 TAD PC 124
04660 6701 device=70,func=1
04661 2303 ISZ PC 103
04662 5240 JMP PC 040
04663 0316 AND PC 116
04664 6324 device=32,func=4
04665 6711 device=71,func=1
04666 5305 JMP PC 105
04667 0323 AND PC 123
04670 5324 JMP PC 124
04671 0317 AND PC 117
04672 6707 device=70,func=7
04673 3311 DCA PC 111
04674 6705 device=70,func=5
04675 1240 TAD PC 040
04676 6305 device=30,func=5
04677 0715 AND PC I 115
04700 6311 device=31,func=1
04701 2316 ISZ PC 116
04702 4305 JMS PC 105
04703 6722 device=72,func=2
04704 6612 device=61,func=2
04705 2211 ISZ PC 011
04706 5301 JMP PC 101
04707 0304 AND PC 104
04710 6324 device=32,func=4
04711 1301 TAD PC 101
04712 4255 JMS PC 055
04713 6662 device=66,func=2
04714 6612 device=61,func=2
04715 1611 TAD PC I 011
04716 4315 JMS PC 115
04717 6701 device=70,func=1
04720 6212 device=21,func=2
04721 5211 JMP PC 011
04722 5315 JMP PC 115
04723 0320 AND PC 120
04724 5656 JMP PC I 056
04725 1255 TAD PC 055
04726 4215 JMS PC 015
04727 4612 JMS PC I 012
04730 6304 device=30,func=4
04731 0703 AND PC I 103
04732 6240 device=24,func=0
04733 0724 AND PC I 124
04734 6302 device=30,func=2
04735 7303 OPR CLA CLL BSW IAC 
04736 5324 JMP PC 124
04737 7611 OPR CLA SCL DIV SHL LSR NMI
04740 6325 device=32,func=5
04741 2723 ISZ PC I 123
04742 6640 device=64,func=0
04743 1701 TAD PC I 101
04744 6240 device=24,func=0
04745 2716 ISZ PC I 116
04746 6707 device=70,func=7
04747 2301 ISZ PC 101
04750 6311 device=31,func=1
04751 2726 ISZ PC I 126
04752 6240 device=24,func=0
04753 7703 OPR CLA MQA SCL DIV SHL LSR SCL
04754 6725 device=72,func=5
04755 2316 ISZ PC 116
04756 4305 JMS PC 105
04757 6722 device=72,func=2
04760 6612 device=61,func=2
04761 2212 ISZ PC 012
04762 5301 JMP PC 101
04763 0304 AND PC 104
04764 6324 device=32,func=4
04765 1301 TAD PC 101
04766 4255 JMS PC 055
04767 6661 device=66,func=1
04770 6212 device=21,func=2
04771 5211 JMP PC 011
04772 5315 JMP PC 115
04773 0323 AND PC 123
04774 6724 device=72,func=4
04775 0331 AND PC 131
04776 4305 JMS PC 105
04777 5215 JMP PC 015
05000 6611 device=61,func=1
05001 1711 TAD PC I 111
05002 6732 device=73,func=2
05003 2240 ISZ PC 040
05004 6301 device=30,func=1
05005 1702 TAD PC I 102
05006 4316 JMS PC 116
05007 4724 JMS PC I 124
05010 6257 device=25,func=7
05011 2722 ISZ PC I 122
05012 6701 device=70,func=1
05013 4704 JMS PC I 104
05014 4277 JMS PC 077
05015 5215 JMP PC 015
05016 6211 device=21,func=1
05017 6712 device=71,func=2
05020 5320 JMP PC 120
05021 7240 OPR CLA CMA 
05022 4255 JMS PC 055
05023 6663 device=66,func=3
05024 6212 device=21,func=2
05025 5211 JMP PC 011
05026 5315 JMP PC 115
05027 0320 AND PC 120
05030 6711 device=71,func=1
05031 2240 ISZ PC 040
05032 4301 JMS PC 101
05033 4702 JMS PC I 102
05034 6257 device=25,func=7
05035 2731 ISZ PC I 131
05036 4323 JMS PC 123
05037 5215 JMP PC 015
05040 5614 JMP PC I 014
05041 0257 AND PC 057
05042 5260 JMP PC 060
05043 0270 AND PC 070
05044 6323 device=32,func=3
05045 1325 TAD PC 125
05046 6722 device=72,func=2
05047 2717 ISZ PC I 117
05050 6324 device=32,func=4
05051 7311 OPR CLA CLL RAR IAC 
05052 6705 device=70,func=5
05053 2240 ISZ PC 040
05054 6317 device=31,func=7
05055 6640 device=64,func=0
05056 6317 device=31,func=7
05057 2726 ISZ PC I 126
05060 5240 JMP PC 040
05061 0301 AND PC 101
05062 6302 device=30,func=2
05063 7714 OPR CLA SPA OSR 
05064 5303 JMP PC 103
05065 0313 AND PC 113
05066 6724 device=72,func=4
05067 1310 TAD PC 110
05070 6317 device=31,func=7
05071 3725 DCA PC I 125
05072 6310 device=31,func=0
05073 1640 TAD PC I 040
05074 6317 device=31,func=7
05075 2722 ISZ PC I 122
05076 5215 JMP PC 015
05077 7612 OPR CLA HLT 
05100 5215 JMP PC 015
05101 7612 OPR CLA HLT 
05102 6211 device=21,func=1
05103 0703 AND PC I 103
05104 6314 device=31,func=4
05105 6314 device=31,func=4
05106 5316 JMP PC 116
05107 0307 AND PC 107
05110 6723 device=72,func=3
05111 0705 AND PC I 105
05112 6325 device=32,func=5
05113 7305 OPR CLA CLL RAL IAC 
05114 4303 JMS PC 103
05115 6705 device=70,func=5
05116 4212 JMS PC 012
05117 4657 JMS PC I 057
05120 6211 device=21,func=1
05121 6712 device=71,func=2
05122 6323 device=32,func=3
05123 6640 device=64,func=0
05124 6317 device=31,func=7
05125 2726 ISZ PC I 126
05126 5215 JMP PC 015
05127 7612 OPR CLA HLT 
05130 5211 JMP PC 011
05131 0211 AND PC 011
05132 6240 device=24,func=0
05133 1240 TAD PC 040
05134 6305 device=30,func=5
05135 4707 JMS PC I 107
05136 6316 device=31,func=6
05137 2301 ISZ PC 101
05140 6304 device=30,func=4
05141 2722 ISZ PC I 122
05142 4323 JMS PC 123
05143 6723 device=72,func=3
05144 4212 JMS PC 012
05145 4657 JMS PC I 057
05146 5211 JMP PC 011
05147 0240 AND PC 040
05150 6240 device=24,func=0
05151 7305 OPR CLA CLL RAL IAC 
05152 6304 device=30,func=4
05153 2301 ISZ PC 101
05154 6304 device=30,func=4
05155 2722 ISZ PC I 122
05156 4323 JMS PC 123
05157 6723 device=72,func=3
05160 4212 JMS PC 012
05161 4657 JMS PC I 057
05162 5211 JMP PC 011
05163 0240 AND PC 040
05164 6240 device=24,func=0
05165 2704 ISZ PC I 104
05166 6323 device=32,func=3
05167 4724 JMS PC I 124
05170 6716 device=71,func=6
05171 2301 ISZ PC 101
05172 6311 device=31,func=1
05173 7317 OPR CLA CLL RAR RAL BSW IAC 
05174 6240 device=24,func=0
05175 3317 DCA PC 117
05176 6240 device=24,func=0
05177 4706 JMS PC I 106
05200 6722 device=72,func=2
05201 2323 ISZ PC 123
05202 6240 device=24,func=0
05203 7727 OPR CLA MQA MQL SCL DIV SHL LSR DIV
05204 4322 JMS PC 122
05205 6704 device=70,func=4
05206 4212 JMS PC 012
05207 4657 JMS PC I 057
05210 6211 device=21,func=1
05211 2722 ISZ PC I 122
05212 6724 device=72,func=4
05213 1325 TAD PC 125
05214 5316 JMP PC 116
05215 7611 OPR CLA SCL DIV SHL LSR NMI
05216 5701 JMP PC I 101
05217 6703 device=70,func=3
05220 4260 JMS PC 060
05221 5215 JMP PC 015
05222 4257 JMS PC 057
05223 5215 JMP PC 015
05224 6257 device=25,func=7
05225 4611 JMS PC I 011
05226 6306 device=30,func=6
05227 1240 TAD PC 040
05230 6305 device=30,func=5
05231 4707 JMS PC I 107
05232 6316 device=31,func=6
05233 2301 ISZ PC 101
05234 6304 device=30,func=4
05235 2722 ISZ PC I 122
05236 5323 JMP PC 123
05237 0323 AND PC 123
05240 6301 device=30,func=1
05241 2316 ISZ PC 116
05242 6240 device=24,func=0
05243 7305 OPR CLA CLL RAL IAC 
05244 6304 device=30,func=4
05245 2301 ISZ PC 101
05246 6304 device=30,func=4
05247 2722 ISZ PC I 122
05250 5323 JMP PC 123
05251 0323 AND PC 123
05252 6301 device=30,func=1
05253 2722 ISZ PC I 122
05254 5215 JMP PC 015
05255 7612 OPR CLA HLT 
05256 5211 JMP PC 011
05257 0240 AND PC 040
05260 6324 device=32,func=4
05261 2710 ISZ PC I 110
05262 6240 device=24,func=0
05263 0723 AND PC I 123
05264 5315 JMP PC 115
05265 0305 AND PC 105
05266 6301 device=30,func=1
05267 2304 ISZ PC 104
05270 6722 device=72,func=2
05271 1705 TAD PC I 105
05272 5323 JMP PC 123
05273 0254 AND PC 054
05274 5317 JMP PC 117
05275 0322 AND PC 122
05276 6302 device=30,func=2
05277 3705 DCA PC I 105
05300 6311 device=31,func=1
05301 0716 AND PC I 116
05302 6704 device=70,func=4
05303 1304 TAD PC 104
05304 6705 device=70,func=5
05305 1723 TAD PC I 123
05306 5215 JMP PC 015
05307 7612 OPR CLA HLT 
05310 5211 JMP PC 011
05311 0240 AND PC 040
05312 5311 JMP PC 111
05313 0323 AND PC 123
05314 6307 device=30,func=7
05315 2722 ISZ PC I 122
05316 6301 device=30,func=1
05317 2724 ISZ PC I 124
05320 6722 device=72,func=2
05321 2240 ISZ PC 040
05322 6310 device=31,func=0
05323 7301 OPR CLA CLL IAC 
05324 6240 device=24,func=0
05325 7305 OPR CLA CLL RAL IAC 
05326 6304 device=30,func=4
05327 2301 ISZ PC 101
05330 6304 device=30,func=4
05331 2722 ISZ PC I 122
05332 5323 JMP PC 123
05333 6323 device=32,func=3
05334 5215 JMP PC 015
05335 7612 OPR CLA HLT 
05336 5211 JMP PC 011
05337 0240 AND PC 040
05340 5316 JMP PC 116
05341 0317 AND PC 117
05342 6715 device=71,func=5
05343 3317 DCA PC 117
05344 6305 device=30,func=5
05345 4640 JMS PC I 040
05346 6723 device=72,func=3
05347 0240 AND PC 040
05350 6305 device=30,func=5
05351 3322 DCA PC 122
05352 6317 device=31,func=7
05353 6722 device=72,func=2
05354 4305 JMS PC 105
05355 6704 device=70,func=4
05356 4212 JMS PC 012
05357 6657 device=65,func=7
05360 4212 JMS PC 012
05361 4657 JMS PC I 057
05362 5311 JMP PC 111
05363 0306 AND PC 106
05364 6302 device=30,func=2
05365 3705 DCA PC I 105
05366 6311 device=31,func=1
05367 0716 AND PC I 116
05370 6704 device=70,func=4
05371 1304 TAD PC 104
05372 6705 device=70,func=5
05373 1723 TAD PC I 123
05374 6240 device=24,func=0
05375 7301 OPR CLA CLL IAC 
05376 6304 device=30,func=4
05377 2240 ISZ PC 040
05400 6705 device=70,func=5
05401 2323 ISZ PC 123
05402 6311 device=31,func=1
05403 0716 AND PC I 116
05404 6324 device=32,func=4
05405 7711 OPR CLA MQA SCL DIV SHL LSR NMI
05406 6316 device=31,func=6
05407 0640 AND PC I 040
05410 4322 JMS PC 122
05411 6705 device=70,func=5
05412 4212 JMS PC 012
05413 4657 JMS PC I 057
05414 6640 device=64,func=0
05415 2240 ISZ PC 040
05416 5310 JMP PC 110
05417 0305 AND PC 105
05420 6323 device=32,func=3
05421 6701 device=70,func=1
05422 6305 device=30,func=5
05423 0640 AND PC I 040
05424 6704 device=70,func=4
05425 1304 TAD PC 104
05426 6705 device=70,func=5
05427 1723 TAD PC I 123
05430 6254 device=25,func=4
05431 0640 AND PC I 040
05432 6240 device=24,func=0
05433 7703 OPR CLA MQA SCL DIV SHL LSR SCL
05434 6315 device=31,func=5
05435 6320 device=32,func=0
05436 6305 device=30,func=5
05437 2724 ISZ PC I 124
05440 6240 device=24,func=0
05441 7715 OPR CLA MQA SCL DIV SHL LSR ASR
05442 4326 JMS PC 126
05443 6705 device=70,func=5
05444 4212 JMS PC 012
05445 4657 JMS PC I 057
05446 6240 device=24,func=0
05447 4640 JMS PC I 040
05450 6723 device=72,func=3
05451 0240 AND PC 040
05452 6305 device=30,func=5
05453 3322 DCA PC 122
05454 6317 device=31,func=7
05455 6722 device=72,func=2
05456 5705 JMP PC I 105
05457 5304 JMP PC 104
05460 6240 device=24,func=0
05461 7731 OPR CLA MQA MQL SCL DIV SHL LSR NMI
05462 6725 device=72,func=5
05463 1640 TAD PC I 040
05464 6710 device=71,func=0
05465 2717 ISZ PC I 117
05466 5314 JMP PC 114
05467 0304 AND PC 104
05470 5302 JMP PC 102
05471 0305 AND PC 105
05472 6714 device=71,func=4
05473 1705 TAD PC I 105
05474 6723 device=72,func=3
05475 1640 TAD PC I 040
05476 6724 device=72,func=4
05477 0325 AND PC 125
05500 5311 JMP PC 111
05501 0704 AND PC I 104
05502 5215 JMP PC 015
05503 7612 OPR CLA HLT 
05504 5215 JMP PC 015
05505 7612 OPR CLA HLT 
05506 5611 JMP PC I 011
05507 3265 DCA PC 065
05510 6240 device=24,func=0
05511 7650 OPR CLA SNA 
05512 6303 device=30,func=3
05513 0724 AND PC I 124
05514 5314 JMP PC 114
05515 0251 AND PC 051
05516 6703 device=70,func=3
05517 1317 TAD PC 117
05520 6305 device=30,func=5
05521 6240 device=24,func=0
05522 6317 device=31,func=7
05523 0703 AND PC I 103
05524 6324 device=32,func=4
05525 7711 OPR CLA MQA SCL DIV SHL LSR NMI
05526 5316 JMP PC 116
05527 0323 AND PC 123
05530 6301 device=30,func=1
05531 2722 ISZ PC I 122
05532 6640 device=64,func=0
05533 1725 TAD PC I 125
05534 4305 JMS PC 105
05535 6704 device=70,func=4
05536 5612 JMP PC I 012
05537 0211 AND PC 011
05540 4215 JMS PC 015
05541 4612 JMS PC I 012
05542 4260 JMS PC 060
05543 5215 JMP PC 015
05544 4211 JMS PC 011
05545 6660 device=66,func=0
05546 5612 JMP PC I 012
05547 0211 AND PC 011
05550 5215 JMP PC 015
05551 7612 OPR CLA HLT 
05552 6215 device=21,func=5
05553 6612 device=61,func=2
05554 6317 device=31,func=7
05555 2726 ISZ PC I 126
05556 5654 JMP PC I 054
05557 0211 AND PC 011
05560 4215 JMS PC 015
05561 4612 JMS PC I 012
05562 6324 device=32,func=4
05563 2301 ISZ PC 101
05564 5240 JMP PC 040
05565 0311 AND PC 111
05566 6715 device=71,func=5
05567 3317 DCA PC 117
05570 5305 JMP PC 105
05571 7611 OPR CLA SCL DIV SHL LSR NMI
05572 6707 device=70,func=7
05573 2305 ISZ PC 105
05574 6240 device=24,func=0
05575 2702 ISZ PC I 102
05576 6307 device=30,func=7
05577 7311 OPR CLA CLL RAR IAC 
05600 6301 device=30,func=1
05601 2304 ISZ PC 104
05602 6722 device=72,func=2
05603 1705 TAD PC I 105
05604 4323 JMS PC 123
05605 5215 JMP PC 015
05606 6211 device=21,func=1
05607 1704 TAD PC I 104
05610 6301 device=30,func=1
05611 6640 device=64,func=0
05612 6317 device=31,func=7
05613 2726 ISZ PC I 126
05614 4255 JMS PC 055
05615 6661 device=66,func=1
05616 6212 device=21,func=2
05617 4611 JMS PC I 011
05620 5323 JMP PC 123
05621 0332 AND PC 132
05622 6715 device=71,func=5
05623 3317 DCA PC 117
05624 4305 JMS PC 105
05625 5215 JMP PC 015
05626 6211 device=21,func=1
05627 0724 AND PC I 124
05630 6304 device=30,func=4
05631 4640 JMS PC I 040
05632 6240 device=24,func=0
05633 7715 OPR CLA MQA SCL DIV SHL LSR ASR
05634 4326 JMS PC 126
05635 4705 JMS PC I 105
05636 6257 device=25,func=7
05637 2707 ISZ PC I 107
05640 6324 device=32,func=4
05641 2640 ISZ PC I 040
05642 6316 device=31,func=6
05643 0704 AND PC I 104
05644 6704 device=70,func=4
05645 1304 TAD PC 104
05646 6705 device=70,func=5
05647 1723 TAD PC I 123
05650 4215 JMS PC 015
05651 4612 JMS PC I 012
05652 6304 device=30,func=4
05653 0703 AND PC I 103
05654 6240 device=24,func=0
05655 7715 OPR CLA MQA SCL DIV SHL LSR ASR
05656 5326 JMP PC 126
05657 6705 device=70,func=5
05660 4262 JMS PC 062
05661 5215 JMP PC 015
05662 6611 device=61,func=1
05663 1711 TAD PC I 111
05664 6332 device=33,func=2
05665 6640 device=64,func=0
05666 6317 device=31,func=7
05667 2726 ISZ PC I 126
05670 4215 JMS PC 015
05671 4612 JMS PC I 012
05672 6324 device=32,func=4
05673 2301 ISZ PC 101
05674 6240 device=24,func=0
05675 7715 OPR CLA MQA SCL DIV SHL LSR ASR
05676 5326 JMP PC 126
05677 6705 device=70,func=5
05700 4262 JMS PC 062
05701 5215 JMP PC 015
05702 6211 device=21,func=1
05703 6703 device=70,func=3
05704 4301 JMS PC 101
05705 5215 JMP PC 015
05706 6211 device=21,func=1
05707 0724 AND PC I 124
05710 6304 device=30,func=4
05711 6640 device=64,func=0
05712 6317 device=31,func=7
05713 2726 ISZ PC I 126
05714 4255 JMS PC 055
05715 4661 JMS PC I 061
05716 6257 device=25,func=7
05717 0703 AND PC I 103
05720 6714 device=71,func=4
05721 2703 ISZ PC I 103
05722 6314 device=31,func=4
05723 0701 AND PC I 101
05724 6705 device=70,func=5
05725 3640 DCA PC I 040
05726 6317 device=31,func=7
05727 2322 ISZ PC 122
05730 6703 device=70,func=3
05731 2717 ISZ PC I 117
05732 4316 JMS PC 116
05733 6724 device=72,func=4
05734 6612 device=61,func=2
05735 1611 TAD PC I 011
05736 4316 JMS PC 116
05737 4701 JMS PC I 101
05740 6211 device=21,func=1
05741 4657 JMS PC I 057
05742 6323 device=32,func=3
05743 4640 JMS PC I 040
05744 6724 device=72,func=4
05745 0240 AND PC 040
05746 6317 device=31,func=7
05747 4723 JMS PC I 123
05750 6724 device=72,func=4
05751 3311 DCA PC 111
05752 6640 device=64,func=0
05753 1317 TAD PC 117
05754 6240 device=24,func=0
05755 2732 ISZ PC I 132
05756 5722 JMP PC I 122
05757 7717 OPR CLA MQA SCL DIV SHL LSR LSR
05760 4215 JMS PC 015
05761 4612 JMS PC I 012
05762 6712 device=71,func=2
05763 0315 AND PC 115
05764 6240 device=24,func=0
05765 7715 OPR CLA MQA SCL DIV SHL LSR ASR
05766 6326 device=32,func=6
05767 2722 ISZ PC I 122
05770 5324 JMP PC 124
05771 7611 OPR CLA SCL DIV SHL LSR NMI
05772 6731 device=73,func=1
05773 1705 TAD PC I 105
05774 6254 device=25,func=4
05775 7240 OPR CLA CMA 
05776 6317 device=31,func=7
05777 6640 device=64,func=0
06000 6317 device=31,func=7
06001 2726 ISZ PC I 126
06002 6240 device=24,func=0
06003 2716 ISZ PC I 116
06004 6305 device=30,func=5
06005 2704 ISZ PC I 104
06006 4304 JMS PC 104
06007 5215 JMP PC 015
06010 6211 device=21,func=1
06011 1704 TAD PC I 104
06012 5301 JMP PC 101
06013 0240 AND PC 040
06014 6317 device=31,func=7
06015 2726 ISZ PC I 126
06016 4255 JMS PC 055
06017 4664 JMS PC I 064
06020 6257 device=25,func=7
06021 0723 AND PC I 123
06022 5326 JMP PC 126
06023 0305 AND PC 105
06024 6727 device=72,func=7
06025 1317 TAD PC 117
06026 6304 device=30,func=4
06027 7703 OPR CLA MQA SCL DIV SHL LSR SCL
06030 6725 device=72,func=5
06031 2316 ISZ PC 116
06032 4215 JMS PC 015
06033 4612 JMS PC I 012
06034 6324 device=32,func=4
06035 2301 ISZ PC 101
06036 6240 device=24,func=0
06037 7715 OPR CLA MQA SCL DIV SHL LSR ASR
06040 5326 JMP PC 126
06041 6705 device=70,func=5
06042 4261 JMS PC 061
06043 5215 JMP PC 015
06044 6211 device=21,func=1
06045 4703 JMS PC I 103
06046 6301 device=30,func=1
06047 1640 TAD PC I 040
06050 4314 JMS PC 114
06051 6714 device=71,func=4
06052 6612 device=61,func=2
06053 2211 ISZ PC 011
06054 5301 JMP PC 101
06055 0304 AND PC 104
06056 6311 device=31,func=1
06057 6640 device=64,func=0
06060 6317 device=31,func=7
06061 2726 ISZ PC I 126
06062 6211 device=21,func=1
06063 1657 TAD PC I 057
06064 6301 device=30,func=1
06065 1714 TAD PC I 114
06066 6325 device=32,func=5
06067 0714 AND PC I 114
06070 5324 JMP PC 124
06071 0305 AND PC 105
06072 6715 device=71,func=5
06073 3317 DCA PC 117
06074 6305 device=30,func=5
06075 7703 OPR CLA MQA SCL DIV SHL LSR SCL
06076 6725 device=72,func=5
06077 2316 ISZ PC 116
06100 4215 JMS PC 015
06101 4612 JMS PC I 012
06102 6304 device=30,func=4
06103 0703 AND PC I 103
06104 6240 device=24,func=0
06105 7715 OPR CLA MQA SCL DIV SHL LSR ASR
06106 5326 JMP PC 126
06107 6705 device=70,func=5
06110 5263 JMP PC 063
06111 7611 OPR CLA SCL DIV SHL LSR NMI
06112 6301 device=30,func=1
06113 2316 ISZ PC 116
06114 6240 device=24,func=0
06115 0723 AND PC I 123
06116 4326 JMS PC 126
06117 6705 device=70,func=5
06120 6612 device=61,func=2
06121 1611 TAD PC I 011
06122 4332 JMS PC 132
06123 4714 JMS PC I 114
06124 6211 device=21,func=1
06125 6257 device=25,func=7
06126 6311 device=31,func=1
06127 5716 JMP PC I 116
06130 6640 device=64,func=0
06131 1711 TAD PC I 111
06132 6240 device=24,func=0
06133 7317 OPR CLA CLL RAR RAL BSW IAC 
06134 6240 device=24,func=0
06135 3311 DCA PC 111
06136 6240 device=24,func=0
06137 7715 OPR CLA MQA SCL DIV SHL LSR ASR
06140 5326 JMP PC 126
06141 0305 AND PC 105
06142 5324 JMP PC 124
06143 0317 AND PC 117
06144 6310 device=31,func=0
06145 3711 DCA PC I 111
06146 6710 device=71,func=0
06147 1305 TAD PC 105
06150 6240 device=24,func=0
06151 7703 OPR CLA MQA SCL DIV SHL LSR SCL
06152 4322 JMS PC 122
06153 6705 device=70,func=5
06154 6212 device=21,func=2
06155 5211 JMP PC 011
06156 5315 JMP PC 115
06157 0320 AND PC 120
06160 5656 JMP PC I 056
06161 1653 TAD PC I 053
06162 5211 JMP PC 011
06163 7611 OPR CLA SCL DIV SHL LSR NMI
06164 6323 device=32,func=3
06165 4713 JMS PC I 113
06166 6320 device=32,func=0
06167 7240 OPR CLA CMA 
06170 6705 device=70,func=5
06171 2330 ISZ PC 130
06172 6240 device=24,func=0
06173 7311 OPR CLA CLL RAR IAC 
06174 6723 device=72,func=3
06175 2324 ISZ PC 124
06176 6725 device=72,func=5
06177 2303 ISZ PC 103
06200 6311 device=31,func=1
06201 7317 OPR CLA CLL RAR RAL BSW IAC 
06202 4323 JMS PC 123
06203 5215 JMP PC 015
06204 6211 device=21,func=1
06205 0711 AND PC I 111
06206 6303 device=30,func=3
06207 1640 TAD PC I 040
06210 4315 JMS PC 115
06211 4714 JMS PC I 114
06212 6211 device=21,func=1
06213 6257 device=25,func=7
06214 6311 device=31,func=1
06215 5716 JMP PC I 116
06216 6640 device=64,func=0
06217 1711 TAD PC I 111
06220 6240 device=24,func=0
06221 3317 DCA PC 117
06222 4306 JMS PC 106
06223 5215 JMP PC 015
06224 6211 device=21,func=1
06225 0724 AND PC I 124
06226 6304 device=30,func=4
06227 6640 device=64,func=0
06230 6317 device=31,func=7
06231 2726 ISZ PC I 126
06232 4255 JMS PC 055
06233 4664 JMS PC I 064
06234 6257 device=25,func=7
06235 4706 JMS PC I 106
06236 6722 device=72,func=2
06237 2323 ISZ PC 123
06240 6240 device=24,func=0
06241 7311 OPR CLA CLL RAR IAC 
06242 6240 device=24,func=0
06243 2301 ISZ PC 101
06244 6304 device=30,func=4
06245 2722 ISZ PC I 122
06246 5323 JMP PC 123
06247 0323 AND PC 123
06250 5311 JMP PC 111
06251 0323 AND PC 123
06252 6302 device=30,func=2
06253 3705 DCA PC I 105
06254 6311 device=31,func=1
06255 0716 AND PC I 116
06256 6704 device=70,func=4
06257 1304 TAD PC 104
06260 6705 device=70,func=5
06261 1723 TAD PC I 123
06262 4215 JMS PC 015
06263 4612 JMS PC I 012
06264 6324 device=32,func=4
06265 2301 ISZ PC 101
06266 6240 device=24,func=0
06267 7715 OPR CLA MQA SCL DIV SHL LSR ASR
06270 5326 JMP PC 126
06271 6705 device=70,func=5
06272 4262 JMS PC 062
06273 5215 JMP PC 015
06274 6211 device=21,func=1
06275 1704 TAD PC I 104
06276 6301 device=30,func=1
06277 6640 device=64,func=0
06300 6317 device=31,func=7
06301 2726 ISZ PC I 126
06302 4255 JMS PC 055
06303 4662 JMS PC I 062
06304 6257 device=25,func=7
06305 0723 AND PC I 123
06306 5326 JMP PC 126
06307 0305 AND PC 105
06310 6711 device=71,func=1
06311 0316 AND PC 116
06312 6725 device=72,func=5
06313 0324 AND PC 124
06314 6317 device=31,func=7
06315 7311 OPR CLA CLL RAR IAC 
06316 6724 device=72,func=4
06317 1305 TAD PC 105
06320 4215 JMS PC 015
06321 4612 JMS PC I 012
06322 6323 device=32,func=3
06323 6332 device=33,func=2
06324 5211 JMP PC 011
06325 7611 OPR CLA SCL DIV SHL LSR NMI
06326 6323 device=32,func=3
06327 4713 JMS PC I 113
06330 6320 device=32,func=0
06331 4640 JMS PC I 040
06332 6306 device=30,func=6
06333 6640 device=64,func=0
06334 6317 device=31,func=7
06335 2726 ISZ PC I 126
06336 6240 device=24,func=0
06337 7724 OPR CLA SMA SNL OSR 
06340 6240 device=24,func=0
06341 7714 OPR CLA SPA OSR 
06342 6727 device=72,func=7
06343 1305 TAD PC 105
06344 6240 device=24,func=0
06345 7703 OPR CLA MQA SCL DIV SHL LSR SCL
06346 4322 JMS PC 122
06347 6705 device=70,func=5
06350 6212 device=21,func=2
06351 1611 TAD PC I 011
06352 5314 JMP PC 114
06353 0314 AND PC 114
06354 6303 device=30,func=3
06355 0715 AND PC I 115
06356 6240 device=24,func=0
06357 0640 AND PC I 040
06360 5314 JMP PC 114
06361 7611 OPR CLA SCL DIV SHL LSR NMI
06362 5324 JMP PC 124
06363 0317 AND PC 117
06364 6310 device=31,func=0
06365 3711 DCA PC I 111
06366 6710 device=71,func=0
06367 1305 TAD PC 105
06370 6240 device=24,func=0
06371 7703 OPR CLA MQA SCL DIV SHL LSR SCL
06372 5322 JMP PC 122
06373 6305 device=30,func=5
06374 6240 device=24,func=0
06375 7311 OPR CLA CLL RAR IAC 
06376 5703 JMP PC I 103
06377 6640 device=64,func=0
06400 5640 JMP PC I 040
06401 0655 AND PC I 055
06402 4215 JMS PC 015
06403 4612 JMS PC I 012
06404 6311 device=31,func=1
06405 1701 TAD PC I 101
06406 4215 JMS PC 015
06407 4612 JMS PC I 012
06410 6304 device=30,func=4
06411 0703 AND PC I 103
06412 6240 device=24,func=0
06413 7715 OPR CLA MQA SCL DIV SHL LSR ASR
06414 5326 JMP PC 126
06415 6705 device=70,func=5
06416 5261 JMP PC 061
06417 7611 OPR CLA SCL DIV SHL LSR NMI
06420 6723 device=72,func=3
06421 3301 DCA PC 101
06422 6305 device=30,func=5
06423 4640 JMS PC I 040
06424 6716 device=71,func=6
06425 1303 TAD PC 103
06426 6305 device=30,func=5
06427 2715 ISZ PC I 115
06430 4316 JMS PC 116
06431 6724 device=72,func=4
06432 6612 device=61,func=2
06433 2211 ISZ PC 011
06434 5301 JMP PC 101
06435 0304 AND PC 104
06436 6715 device=71,func=5
06437 3317 DCA PC 117
06440 5705 JMP PC I 105
06441 1255 TAD PC 055
06442 6611 device=61,func=1
06443 1657 TAD PC I 057
06444 5305 JMP PC 105
06445 0324 AND PC 124
06446 5325 JMP PC 125
06447 0320 AND PC 120
06450 6717 device=71,func=7
06451 2325 ISZ PC 125
06452 6720 device=72,func=0
06453 2325 ISZ PC 125
06454 6320 device=32,func=0
06455 4717 JMS PC I 117
06456 6316 device=31,func=6
06457 2724 ISZ PC I 124
06460 4322 JMS PC 122
06461 5215 JMP PC 015
06462 6211 device=21,func=1
06463 0724 AND PC I 124
06464 6304 device=30,func=4
06465 6640 device=64,func=0
06466 6317 device=31,func=7
06467 2726 ISZ PC I 126
06470 4255 JMS PC 055
06471 6663 device=66,func=3
06472 6212 device=21,func=2
06473 2211 ISZ PC 011
06474 5303 JMP PC 103
06475 0301 AND PC 101
06476 6715 device=71,func=5
06477 3317 DCA PC 117
06500 5705 JMP PC I 105
06501 1655 TAD PC I 055
06502 6211 device=21,func=1
06503 0657 AND PC I 057
06504 5316 JMP PC 116
06505 0304 AND PC 104
06506 6723 device=72,func=3
06507 3301 DCA PC 101
06510 4305 JMS PC 105
06511 5215 JMP PC 015
06512 6315 device=31,func=5
06513 6326 device=32,func=6
06514 6717 device=71,func=7
06515 0317 AND PC 117
06516 6654 device=65,func=4
06517 2211 ISZ PC 011
06520 5301 JMP PC 101
06521 0304 AND PC 104
06522 6311 device=31,func=1
06523 6640 device=64,func=0
06524 6317 device=31,func=7
06525 2726 ISZ PC I 126
06526 4255 JMS PC 055
06527 4662 JMS PC I 062
06530 6257 device=25,func=7
06531 2707 ISZ PC I 107
06532 6324 device=32,func=4
06533 0640 AND PC I 040
06534 6240 device=24,func=0
06535 7727 OPR CLA MQA MQL SCL DIV SHL LSR DIV
06536 4322 JMS PC 122
06537 6704 device=70,func=4
06540 6215 device=21,func=5
06541 2211 ISZ PC 011
06542 5303 JMP PC 103
06543 0301 AND PC 101
06544 6311 device=31,func=1
06545 6640 device=64,func=0
06546 6317 device=31,func=7
06547 2726 ISZ PC I 126
06550 4255 JMS PC 055
06551 4663 JMS PC I 063
06552 6257 device=25,func=7
06553 7301 OPR CLA CLL IAC 
06554 6704 device=70,func=4
06555 1640 TAD PC I 040
06556 6724 device=72,func=4
06557 1317 TAD PC 117
06560 6305 device=30,func=5
06561 4640 JMS PC I 040
06562 6324 device=32,func=4
06563 4640 JMS PC I 040
06564 6316 device=31,func=6
06565 2240 ISZ PC 040
06566 6705 device=70,func=5
06567 2323 ISZ PC 123
06570 6311 device=31,func=1
06571 0716 AND PC I 116
06572 6324 device=32,func=4
06573 7711 OPR CLA MQA SCL DIV SHL LSR NMI
06574 6316 device=31,func=6
06575 1240 TAD PC 040
06576 6314 device=31,func=4
06577 1717 TAD PC I 117
06600 4313 JMS PC 113
06601 5215 JMP PC 015
06602 6211 device=21,func=1
06603 0724 AND PC I 124
06604 6304 device=30,func=4
06605 6640 device=64,func=0
06606 6317 device=31,func=7
06607 2726 ISZ PC I 126
06610 4255 JMS PC 055
06611 6662 device=66,func=2
06612 6612 device=61,func=2
06613 2211 ISZ PC 011
06614 5301 JMP PC 101
06615 0304 AND PC 104
06616 6715 device=71,func=5
06617 3317 DCA PC 117
06620 5705 JMP PC I 105
06621 0655 AND PC I 055
06622 6211 device=21,func=1
06623 4657 JMS PC I 057
06624 6716 device=71,func=6
06625 1303 TAD PC 103
06626 6305 device=30,func=5
06627 2715 ISZ PC I 115
06630 6316 device=31,func=6
06631 4640 JMS PC I 040
06632 6716 device=71,func=6
06633 2720 ISZ PC I 120
06634 6324 device=32,func=4
06635 7720 OPR CLA SMA SNL 
06636 6711 device=71,func=1
06637 2316 ISZ PC 116
06640 4305 JMS PC 105
06641 6722 device=72,func=2
06642 6212 device=21,func=2
06643 2211 ISZ PC 011
06644 5303 JMP PC 103
06645 0301 AND PC 101
06646 6715 device=71,func=5
06647 3317 DCA PC 117
06650 5705 JMP PC I 105
06651 1255 TAD PC 055
06652 4215 JMS PC 015
06653 4612 JMS PC I 012
06654 6324 device=32,func=4
06655 2301 ISZ PC 101
06656 6240 device=24,func=0
06657 7715 OPR CLA MQA SCL DIV SHL LSR ASR
06660 5326 JMP PC 126
06661 6705 device=70,func=5
06662 4263 JMS PC 063
06663 5215 JMP PC 015
06664 6211 device=21,func=1
06665 0724 AND PC I 124
06666 6304 device=30,func=4
06667 6640 device=64,func=0
06670 6317 device=31,func=7
06671 2726 ISZ PC I 126
06672 4255 JMS PC 055
06673 4661 JMS PC I 061
06674 6257 device=25,func=7
06675 7311 OPR CLA CLL RAR IAC 
06676 6303 device=30,func=3
06677 2722 ISZ PC I 122
06700 6315 device=31,func=5
06701 7305 OPR CLA CLL RAL IAC 
06702 6324 device=32,func=4
06703 7640 OPR CLA SZA 
06704 6725 device=72,func=5
06705 0324 AND PC 124
06706 6725 device=72,func=5
06707 0324 AND PC 124
06710 6317 device=31,func=7
06711 7311 OPR CLA CLL RAR IAC 
06712 6724 device=72,func=4
06713 1305 TAD PC 105
06714 4215 JMS PC 015
06715 4612 JMS PC I 012
06716 6304 device=30,func=4
06717 0703 AND PC I 103
06720 6640 device=64,func=0
06721 3317 DCA PC 117
06722 5705 JMP PC I 105
06723 1655 TAD PC I 055
06724 4215 JMS PC 015
06725 4612 JMS PC I 012
06726 6711 device=71,func=1
06727 5323 JMP PC 123
06730 6240 device=24,func=0
06731 7715 OPR CLA MQA SCL DIV SHL LSR ASR
06732 5326 JMP PC 126
06733 6705 device=70,func=5
06734 5264 JMP PC 064
06735 7611 OPR CLA SCL DIV SHL LSR NMI
06736 6311 device=31,func=1
06737 1716 TAD PC I 116
06740 6322 device=32,func=2
06741 6705 device=70,func=5
06742 6705 device=70,func=5
06743 2316 ISZ PC 116
06744 6240 device=24,func=0
06745 7727 OPR CLA MQA MQL SCL DIV SHL LSR DIV
06746 6322 device=32,func=2
06747 1704 TAD PC I 104
06750 6317 device=31,func=7
06751 7325 OPR CLA CLL CML RAL IAC 
06752 4324 JMS PC 124
06753 5215 JMP PC 015
06754 6211 device=21,func=1
06755 6712 device=71,func=2
06756 6320 device=32,func=0
06757 6640 device=64,func=0
06760 6326 device=32,func=6
06761 7714 OPR CLA SPA OSR 
06762 4317 JMS PC 117
06763 4720 JMS PC I 120
06764 6257 device=25,func=7
06765 3701 DCA PC I 101
06766 6301 device=30,func=1
06767 7311 OPR CLA CLL RAR IAC 
06770 6240 device=24,func=0
06771 3311 DCA PC 111
06772 6240 device=24,func=0
06773 7716 OPR CLA SPA OSR HLT 
06774 6724 device=72,func=4
06775 5240 JMP PC 040
06776 6305 device=30,func=5
06777 7722 OPR CLA SMA SNL HLT 
07000 5215 JMP PC 015
07001 7612 OPR CLA HLT 
07002 6215 device=21,func=5
07003 6612 device=61,func=2
07004 6717 device=71,func=7
07005 1326 TAD PC 126
07006 5305 JMP PC 105
07007 6324 device=32,func=4
07010 6611 device=61,func=1
07011 1711 TAD PC I 111
07012 6332 device=33,func=2
07013 6640 device=64,func=0
07014 6317 device=31,func=7
07015 2726 ISZ PC I 126
07016 6611 device=61,func=1
07017 1657 TAD PC I 057
07020 5305 JMP PC 105
07021 0324 AND PC 124
07022 5325 JMP PC 125
07023 0320 AND PC 120
07024 6722 device=72,func=2
07025 2305 ISZ PC 105
07026 6325 device=32,func=5
07027 7322 OPR CLA CLL CML BSW 
07030 6301 device=30,func=1
07031 2304 ISZ PC 104
07032 6722 device=72,func=2
07033 1705 TAD PC I 105
07034 4323 JMS PC 123
07035 5215 JMP PC 015
07036 6211 device=21,func=1
07037 6712 device=71,func=2
07040 6320 device=32,func=0
07041 4640 JMS PC I 040
07042 6240 device=24,func=0
07043 7715 OPR CLA MQA SCL DIV SHL LSR ASR
07044 4326 JMS PC 126
07045 4705 JMS PC I 105
07046 6257 device=25,func=7
07047 2722 ISZ PC I 122
07050 6724 device=72,func=4
07051 1325 TAD PC 125
07052 4316 JMS PC 116
07053 5215 JMP PC 015
07054 5614 JMP PC I 014
07055 0257 AND PC 057
07056 5260 JMP PC 060
07057 0271 AND PC 071
07060 6302 device=30,func=2
07061 7311 OPR CLA CLL RAR IAC 
07062 6701 device=70,func=1
07063 4722 JMS PC I 122
07064 6640 device=64,func=0
07065 2720 ISZ PC I 120
07066 6316 device=31,func=6
07067 4303 JMS PC 103
07070 6640 device=64,func=0
07071 3640 DCA PC I 040
07072 6311 device=31,func=1
07073 4324 JMS PC 124
07074 6240 device=24,func=0
07075 4706 JMS PC I 106
07076 6305 device=30,func=5
07077 2314 ISZ PC 114
07100 6240 device=24,func=0
07101 2723 ISZ PC I 123
07102 6324 device=32,func=4
07103 4724 JMS PC I 124
07104 4316 JMS PC 116
07105 6707 device=70,func=7
07106 6612 device=61,func=2
07107 2257 ISZ PC 057
07110 6310 device=31,func=0
07111 2722 ISZ PC I 122
07112 6705 device=70,func=5
07113 1640 TAD PC I 040
07114 6725 device=72,func=5
07115 1302 TAD PC 102
07116 6717 device=71,func=7
07117 2325 ISZ PC 125
07120 6311 device=31,func=1
07121 2716 ISZ PC I 116
07122 6723 device=72,func=3
07123 2240 ISZ PC 040
07124 6717 device=71,func=7
07125 0240 AND PC 040
07126 6325 device=32,func=5
07127 1716 TAD PC I 116
07130 6310 device=31,func=0
07131 0640 AND PC I 040
07132 6316 device=31,func=6
07133 0640 AND PC I 040
07134 6322 device=32,func=2
07135 0705 AND PC I 105
07136 6240 device=24,func=0
07137 3317 DCA PC 117
07140 6240 device=24,func=0
07141 7703 OPR CLA MQA SCL DIV SHL LSR SCL
07142 5322 JMP PC 122
07143 0305 AND PC 105
07144 5311 JMP PC 111
07145 0316 AND PC 116
07146 6302 device=30,func=2
07147 7311 OPR CLA CLL RAR IAC 
07150 6701 device=70,func=1
07151 4722 JMS PC I 122
07152 5215 JMP PC 015
07153 7612 OPR CLA HLT 
07154 6314 device=31,func=4
07155 0717 AND PC I 117
07156 6704 device=70,func=4
07157 1305 TAD PC 105
07160 6240 device=24,func=0
07161 7706 OPR CLA SMA OSR HLT 
07162 6322 device=32,func=2
07163 0715 AND PC I 115
07164 5324 JMP PC 124
07165 0256 AND PC 056
07166 6306 device=30,func=6
07167 2711 ISZ PC I 111
07170 5314 JMP PC 114
07171 0304 AND PC 104
07172 6723 device=72,func=3
07173 2305 ISZ PC 105
07174 6324 device=32,func=4
07175 7311 OPR CLA CLL RAR IAC 
07176 5307 JMP PC 107
07177 0323 AND PC 123
07200 6301 device=30,func=1
07201 2316 ISZ PC 116
07202 6640 device=64,func=0
07203 1317 TAD PC 117
07204 6311 device=31,func=1
07205 4707 JMS PC I 107
07206 6716 device=71,func=6
07207 1640 TAD PC I 040
07210 6705 device=70,func=5
07211 2324 ISZ PC 124
07212 6311 device=31,func=1
07213 3716 DCA PC I 116
07214 4323 JMS PC 123
07215 5215 JMP PC 015
07216 6657 device=65,func=7
07217 1301 TAD PC 101
07220 6305 device=30,func=5
07221 1240 TAD PC 040
07222 6305 device=30,func=5
07223 7311 OPR CLA CLL RAR IAC 
07224 6707 device=70,func=7
07225 0240 AND PC 040
07226 6325 device=32,func=5
07227 1725 TAD PC I 125
07230 6310 device=31,func=0
07231 2305 ISZ PC 105
07232 6640 device=64,func=0
07233 2301 ISZ PC 101
07234 6240 device=24,func=0
07235 0705 AND PC I 105
07236 5303 JMP PC 103
07237 0310 AND PC 110
07240 6705 device=70,func=5
07241 2316 ISZ PC 116
07242 5722 JMP PC I 122
07243 5731 JMP PC I 131
07244 6240 device=24,func=0
07245 4303 JMS PC 103
07246 6305 device=30,func=5
07247 5703 JMP PC I 103
07250 6323 device=32,func=3
07251 6725 device=72,func=5
07252 6640 device=64,func=0
07253 1711 TAD PC I 111
07254 6640 device=64,func=0
07255 2720 ISZ PC I 120
07256 6316 device=31,func=6
07257 4303 JMS PC 103
07260 4305 JMS PC 105
07261 6704 device=70,func=4
07262 6612 device=61,func=2
07263 3657 DCA PC I 057
07264 6310 device=31,func=0
07265 7305 OPR CLA CLL RAL IAC 
07266 6640 device=64,func=0
07267 2720 ISZ PC I 120
07270 6316 device=31,func=6
07271 4303 JMS PC 103
07272 6313 device=31,func=3
07273 4640 JMS PC I 040
07274 6323 device=32,func=3
07275 1640 TAD PC I 040
07276 6301 device=30,func=1
07277 6314 device=31,func=4
07300 5305 JMP PC 105
07301 7304 OPR CLA CLL RAL 
07302 5215 JMP PC 015
07303 7612 OPR CLA HLT 
07304 6324 device=32,func=4
07305 2710 ISZ PC I 110
07306 6240 device=24,func=0
07307 7722 OPR CLA SMA SNL HLT 
07310 6325 device=32,func=5
07311 4724 JMS PC I 124
07312 5316 JMP PC 116
07313 0305 AND PC 105
07314 6303 device=30,func=3
07315 7301 OPR CLA CLL IAC 
07316 6240 device=24,func=0
07317 5724 JMP PC I 124
07320 6305 device=30,func=5
07321 2240 ISZ PC 040
07322 6301 device=30,func=1
07323 0724 AND PC I 124
07324 6640 device=64,func=0
07325 1306 TAD PC 106
07326 5317 JMP PC 117
07327 0315 AND PC 115
07330 6301 device=30,func=1
07331 2240 ISZ PC 040
07332 6311 device=31,func=1
07333 3306 DCA PC 106
07334 6305 device=30,func=5
07335 2722 ISZ PC I 122
07336 5316 JMP PC 116
07337 0324 AND PC 124
07340 6306 device=30,func=6
07341 2711 ISZ PC I 111
07342 5314 JMP PC 114
07343 7304 OPR CLA CLL RAL 
07344 5215 JMP PC 015
07345 7612 OPR CLA HLT 
07346 5311 JMP PC 111
07347 0324 AND PC 124
07350 6303 device=30,func=3
07351 7301 OPR CLA CLL IAC 
07352 6640 device=64,func=0
07353 0317 AND PC 117
07354 6305 device=30,func=5
07355 0722 AND PC I 122
07356 5324 JMP PC 124
07357 0305 AND PC 105
07360 5311 JMP PC 111
07361 0316 AND PC 116
07362 6301 device=30,func=1
07363 6314 device=31,func=4
07364 6240 device=24,func=0
07365 4706 JMS PC I 106
07366 6305 device=30,func=5
07367 2314 ISZ PC 114
07370 5323 JMP PC 123
07371 0256 AND PC 056
07372 6723 device=72,func=3
07373 3305 DCA PC 105
07374 6305 device=30,func=5
07375 0722 AND PC I 122
07376 6714 device=71,func=4
07377 2640 ISZ PC I 040
07400 6723 device=72,func=3
07401 1705 TAD PC I 105
07402 6640 device=64,func=0
07403 0301 AND PC 101
07404 6720 device=72,func=0
07405 4714 JMS PC I 114
07406 4272 JMS PC 072
07407 5215 JMP PC 015
07410 5212 JMP PC 012
07411 4661 JMS PC I 061
07412 6240 device=24,func=0
07413 7716 OPR CLA SPA OSR HLT 
07414 6322 device=32,func=2
07415 0715 AND PC I 115
07416 6714 device=71,func=4
07417 2640 ISZ PC I 040
07420 5323 JMP PC 123
07421 7305 OPR CLA CLL RAL IAC 
07422 6240 device=24,func=0
07423 4324 JMS PC 124
07424 6305 device=30,func=5
07425 2240 ISZ PC 040
07426 6301 device=30,func=1
07427 0724 AND PC I 124
07430 6640 device=64,func=0
07431 1711 TAD PC I 111
07432 6240 device=24,func=0
07433 7714 OPR CLA SPA OSR 
07434 6703 device=70,func=3
07435 2301 ISZ PC 101
07436 5305 JMP PC 105
07437 0304 AND PC 104
07440 5311 JMP PC 111
07441 0316 AND PC 116
07442 6324 device=32,func=4
07443 2710 ISZ PC I 110
07444 6240 device=24,func=0
07445 0723 AND PC I 123
07446 5315 JMP PC 115
07447 0305 AND PC 105
07450 6306 device=30,func=6
07451 2711 ISZ PC I 111
07452 5314 JMP PC 114
07453 0304 AND PC 104
07454 4317 JMS PC 117
07455 6722 device=72,func=2
07456 6612 device=61,func=2
07457 1657 TAD PC I 057
07460 6324 device=32,func=4
07461 0722 AND PC I 122
07462 6316 device=31,func=6
07463 2707 ISZ PC I 107
07464 6240 device=24,func=0
07465 4706 JMS PC I 106
07466 6305 device=30,func=5
07467 2314 ISZ PC 114
07470 6256 device=25,func=6
07471 2640 ISZ PC I 040
07472 6316 device=31,func=6
07473 2724 ISZ PC I 124
07474 6722 device=72,func=2
07475 3640 DCA PC I 040
07476 6311 device=31,func=1
07477 4324 JMS PC 124
07500 6240 device=24,func=0
07501 4706 JMS PC I 106
07502 6305 device=30,func=5
07503 2314 ISZ PC 114
07504 6240 device=24,func=0
07505 7311 OPR CLA CLL RAR IAC 
07506 6240 device=24,func=0
07507 1701 TAD PC I 101
07510 6273 device=27,func=3
07511 6240 device=24,func=0
07512 6311 device=31,func=1
07513 5716 JMP PC I 116
07514 4275 JMS PC 075
07515 6660 device=66,func=0
07516 5612 JMP PC I 012
07517 1257 TAD PC 057
07520 6651 device=65,func=1
07521 2240 ISZ PC 040
07522 5310 JMP PC 110
07523 0305 AND PC 105
07524 6303 device=30,func=3
07525 2317 ISZ PC 117
07526 6305 device=30,func=5
07527 4640 JMS PC I 040
07530 6323 device=32,func=3
07531 4640 JMS PC I 040
07532 6716 device=71,func=6
07533 1640 TAD PC I 040
07534 6301 device=30,func=1
07535 2715 ISZ PC I 115
07536 6240 device=24,func=0
07537 4706 JMS PC I 106
07540 6305 device=30,func=5
07541 2314 ISZ PC 114
07542 6640 device=64,func=0
07543 1701 TAD PC I 101
07544 6240 device=24,func=0
07545 4702 JMS PC I 102
07546 6716 device=71,func=6
07547 2720 ISZ PC I 120
07550 5316 JMP PC 116
07551 0254 AND PC 054
07552 6317 device=31,func=7
07553 6316 device=31,func=6
07554 6331 device=33,func=1
07555 0640 AND PC I 040
07556 6240 device=24,func=0
07557 4704 JMS PC I 104
07560 6306 device=30,func=6
07561 2706 ISZ PC I 106
07562 6322 device=32,func=2
07563 7305 OPR CLA CLL RAL IAC 
07564 4324 JMS PC 124
07565 5215 JMP PC 015
07566 6257 device=25,func=7
07567 4706 JMS PC I 106
07570 6305 device=30,func=5
07571 6314 device=31,func=4
07572 6240 device=24,func=0
07573 2723 ISZ PC I 123
07574 6324 device=32,func=4
07575 4724 JMS PC I 124
07576 5316 JMP PC 116
07577 0307 AND PC 107
07600 6316 device=31,func=6
07601 2705 ISZ PC I 105
07602 5304 JMP PC 104
07603 0323 AND PC 123
07604 5324 JMP PC 124
07605 0317 AND PC 117
07606 5302 JMP PC 102
07607 0305 AND PC 105
07610 6320 device=32,func=0
07611 7325 OPR CLA CLL CML RAL IAC 
07612 6303 device=30,func=3
07613 2710 ISZ PC I 110
07614 5304 JMP PC 104
07615 0256 AND PC 056
07616 6705 device=70,func=5
07617 2316 ISZ PC 116
07620 5305 JMP PC 105
07621 0322 AND PC 122
07622 6302 device=30,func=2
07623 7311 OPR CLA CLL RAR IAC 
07624 6320 device=32,func=0
07625 7325 OPR CLA CLL CML RAL IAC 
07626 5215 JMP PC 015
07627 7612 OPR CLA HLT 
07630 6727 device=72,func=7
07631 2311 ISZ PC 111
07632 6310 device=31,func=0
07633 3240 DCA PC 040
07634 6311 device=31,func=1
07635 6305 device=30,func=5
07636 6304 device=30,func=4
07637 4640 JMS PC I 040
07640 6316 device=31,func=6
07641 0640 AND PC I 040
07642 6303 device=30,func=3
07643 0640 AND PC I 040
07644 5316 JMP PC 116
07645 0304 AND PC 104
07646 6314 device=31,func=4
07647 7311 OPR CLA CLL RAR IAC 
07650 5713 JMP PC I 113
07651 0675 AND PC I 075
07652 4256 JMS PC 056
07653 5215 JMP PC 015
07654 5257 JMP PC 057
07655 4663 JMS PC I 063
07656 6240 device=24,func=0
07657 4324 JMS PC 124
07660 6305 device=30,func=5
07661 1640 TAD PC I 040
07662 6317 device=31,func=7
07663 2704 ISZ PC I 104
07664 6240 device=24,func=0
07665 0710 AND PC I 110
07666 6323 device=32,func=3
07667 1240 TAD PC 040
07670 6305 device=30,func=5
07671 7305 OPR CLA CLL RAL IAC 
07672 6240 device=24,func=0
07673 7715 OPR CLA MQA SCL DIV SHL LSR ASR
07674 6326 device=32,func=6
07675 2305 ISZ PC 105
07676 6240 device=24,func=0
07677 7311 OPR CLA CLL RAR IAC 
07700 6240 device=24,func=0
07701 7703 OPR CLA MQA SCL DIV SHL LSR SCL
07702 5322 JMP PC 122
07703 7305 OPR CLA CLL RAL IAC 
07704 6240 device=24,func=0
07705 4324 JMS PC 124
07706 6305 device=30,func=5
07707 3240 DCA PC 040
07710 6711 device=71,func=1
07711 1722 TAD PC I 122
07712 6324 device=32,func=4
07713 6240 device=24,func=0
07714 6317 device=31,func=7
07715 0703 AND PC I 103
07716 6324 device=32,func=4
07717 7711 OPR CLA MQA SCL DIV SHL LSR NMI
07720 4316 JMS PC 116
07721 5215 JMP PC 015
07722 6657 device=65,func=7
07723 1711 TAD PC I 111
07724 6240 device=24,func=0
07725 7716 OPR CLA SPA OSR HLT 
07726 6324 device=32,func=4
07727 7240 OPR CLA CMA 
07730 6305 device=30,func=5
07731 2703 ISZ PC I 103
07732 6323 device=32,func=3
07733 0723 AND PC I 123
07734 6322 device=32,func=2
07735 6311 device=31,func=1
07736 6731 device=73,func=1
07737 2240 ISZ PC 040
07740 5310 JMP PC 110
07741 0305 AND PC 105
07742 6317 device=31,func=7
07743 4722 JMS PC I 122
07744 6307 device=30,func=7
07745 7311 OPR CLA CLL RAR IAC 
07746 6256 device=25,func=6
07747 7240 OPR CLA CMA 
07750 5317 JMP PC 117
07751 0327 AND PC 127
07752 6705 device=70,func=5
07753 2305 ISZ PC 105
07754 5305 JMP PC 105
07755 0322 AND PC 122
07756 6302 device=30,func=2
07757 7311 OPR CLA CLL RAR IAC 
07760 6320 device=32,func=0
07761 7325 OPR CLA CLL CML RAL IAC 
07762 6240 device=24,func=0
07763 4727 JMS PC I 127
07764 4324 JMS PC 124
07765 6710 device=71,func=0
07766 6212 device=21,func=2
07767 0657 AND PC I 057
07770 6303 device=30,func=3
07771 3275 DCA PC 075
07772 6311 device=31,func=1
07773 6305 device=30,func=5
07774 6304 device=30,func=4
07775 3240 DCA PC 040
07776 5317 JMP PC 117
07777 0322 AND PC 122
10000 6723 device=72,func=3
10001 2305 ISZ PC 105
10002 6324 device=32,func=4
10003 7311 OPR CLA CLL RAR IAC 
10004 5307 JMP PC 107
10005 0273 AND PC 073
10006 6314 device=31,func=4
10007 7311 OPR CLA CLL RAR IAC 
10010 5713 JMP PC I 113
10011 0675 AND PC I 075
10012 6673 device=67,func=3
10013 1640 TAD PC I 040
10014 5305 JMP PC 105
10015 0324 AND PC 124
10016 6317 device=31,func=7
10017 4722 JMS PC I 122
10020 6307 device=30,func=7
10021 7311 OPR CLA CLL RAR IAC 
10022 6240 device=24,func=0
10023 7325 OPR CLA CLL CML RAL IAC 
10024 6705 device=70,func=5
10025 2721 ISZ PC I 121
10026 5301 JMP PC 101
10027 0314 AND PC 114
10030 4324 JMS PC 124
10031 6717 device=71,func=7
10032 6212 device=21,func=2
10033 3257 DCA PC 057
10034 6711 device=71,func=1
10035 1722 TAD PC I 122
10036 6324 device=32,func=4
10037 6240 device=24,func=0
10040 6317 device=31,func=7
10041 0703 AND PC I 103
10042 6324 device=32,func=4
10043 7711 OPR CLA MQA SCL DIV SHL LSR NMI
10044 6316 device=31,func=6
10045 4640 JMS PC I 040
10046 6706 device=70,func=6
10047 2240 ISZ PC 040
10050 6710 device=71,func=0
10051 1711 TAD PC I 111
10052 6640 device=64,func=0
10053 1711 TAD PC I 111
10054 6640 device=64,func=0
10055 1324 TAD PC 124
10056 5325 JMP PC 125
10057 7305 OPR CLA CLL RAL IAC 
10060 5215 JMP PC 015
10061 7612 OPR CLA HLT 
10062 6305 device=30,func=5
10063 0730 AND PC I 130
10064 6315 device=31,func=5
10065 6320 device=32,func=0
10066 6305 device=30,func=5
10067 7640 OPR CLA SZA 
10070 6306 device=30,func=6
10071 7240 OPR CLA CMA 
10072 6317 device=31,func=7
10073 6722 device=72,func=2
10074 5301 JMP PC 101
10075 0314 AND PC 114
10076 6325 device=32,func=5
10077 2723 ISZ PC I 123
10100 4272 JMS PC 072
10101 5215 JMP PC 015
10102 4257 JMS PC 057
10103 5215 JMP PC 015
10104 6257 device=25,func=7
10105 5211 JMP PC 011
10106 5315 JMP PC 115
10107 0323 AND PC 123
10110 6314 device=31,func=4
10111 0705 AND PC I 105
10112 6704 device=70,func=4
10113 1305 TAD PC 105
10114 6611 device=61,func=1
10115 0257 AND PC 057
10116 6325 device=32,func=5
10117 1716 TAD PC I 116
10120 6310 device=31,func=0
10121 6240 device=24,func=0
10122 6305 device=30,func=5
10123 2301 ISZ PC 101
10124 5305 JMP PC 105
10125 6322 device=32,func=2
10126 6240 device=24,func=0
10127 6303 device=30,func=3
10130 6705 device=70,func=5
10131 1301 TAD PC 101
10132 6240 device=24,func=0
10133 4303 JMS PC 103
10134 6310 device=31,func=0
10135 2705 ISZ PC I 105
10136 6305 device=30,func=5
10137 5703 JMP PC I 103
10140 6323 device=32,func=3
10141 6725 device=72,func=5
10142 5215 JMP PC 015
10143 7612 OPR CLA HLT 
10144 6211 device=21,func=1
10145 6303 device=30,func=3
10146 4314 JMS PC 114
10147 5215 JMP PC 015
10150 6657 device=65,func=7
10151 2211 ISZ PC 011
10152 5301 JMP PC 101
10153 0304 AND PC 104
10154 5650 JMP PC I 050
10155 0260 AND PC 060
10156 4261 JMS PC 061
10157 4660 JMS PC I 060
10160 6257 device=25,func=7
10161 4706 JMS PC I 106
10162 6305 device=30,func=5
10163 2314 ISZ PC 114
10164 4240 JMS PC 040
10165 6661 device=66,func=1
10166 4212 JMS PC 012
10167 4657 JMS PC I 057
10170 6712 device=71,func=2
10171 1715 TAD PC I 115
10172 6240 device=24,func=0
10173 4702 JMS PC I 102
10174 6716 device=71,func=6
10175 2720 ISZ PC I 120
10176 4316 JMS PC 116
10177 5215 JMP PC 015
10200 5257 JMP PC 057
10201 0211 AND PC 011
10202 6240 device=24,func=0
10203 7640 OPR CLA SZA 
10204 6322 device=32,func=2
10205 3711 DCA PC I 111
10206 4311 JMS PC 111
10207 4716 JMS PC I 116
10210 6257 device=25,func=7
10211 7311 OPR CLA CLL RAR IAC 
10212 6240 device=24,func=0
10213 7716 OPR CLA SPA OSR HLT 
10214 6322 device=32,func=2
10215 0715 AND PC I 115
10216 6714 device=71,func=4
10217 2640 ISZ PC I 040
10220 5723 JMP PC I 123
10221 6705 device=70,func=5
10222 6706 device=70,func=6
10223 1311 TAD PC 111
10224 5323 JMP PC 123
10225 0324 AND PC 124
10226 6314 device=31,func=4
10227 7717 OPR CLA MQA SCL DIV SHL LSR LSR
10230 4256 JMS PC 056
10231 5215 JMP PC 015
10232 5257 JMP PC 057
10233 0211 AND PC 011
10234 6240 device=24,func=0
10235 3240 DCA PC 040
10236 6711 device=71,func=1
10237 1722 TAD PC I 122
10240 6324 device=32,func=4
10241 6240 device=24,func=0
10242 5317 JMP PC 117
10243 7303 OPR CLA CLL BSW IAC 
10244 5215 JMP PC 015
10245 7612 OPR CLA HLT 
10246 5211 JMP PC 011
10247 0240 AND PC 040
10250 6240 device=24,func=0
10251 0714 AND PC I 114
10252 5323 JMP PC 123
10253 0324 AND PC 124
10254 6314 device=31,func=4
10255 1717 TAD PC I 117
10256 4256 JMS PC 056
10257 5215 JMP PC 015
10260 6257 device=25,func=7
10261 5211 JMP PC 011
10262 5315 JMP PC 115
10263 0323 AND PC 123
10264 6320 device=32,func=0
10265 7325 OPR CLA CLL CML RAL IAC 
10266 6303 device=30,func=3
10267 5710 JMP PC I 110
10270 6611 device=61,func=1
10271 0257 AND PC 057
10272 6325 device=32,func=5
10273 1716 TAD PC I 116
10274 6310 device=31,func=0
10275 1640 TAD PC I 040
10276 6710 device=71,func=0
10277 1713 TAD PC I 113
10300 6315 device=31,func=5
10301 0640 AND PC I 040
10302 5316 JMP PC 116
10303 0304 AND PC 104
10304 6324 device=32,func=4
10305 0722 AND PC I 122
10306 6311 device=31,func=1
10307 2714 ISZ PC I 114
10310 4322 JMS PC 122
10311 5215 JMP PC 015
10312 6215 device=21,func=5
10313 1212 TAD PC 012
10314 6311 device=31,func=1
10315 2716 ISZ PC I 116
10316 4316 JMS PC 116
10317 4704 JMS PC I 104
10320 4260 JMS PC 060
10321 4611 JMS PC I 011
10322 6257 device=25,func=7
10323 0714 AND PC I 114
10324 5323 JMP PC 123
10325 0324 AND PC 124
10326 6314 device=31,func=4
10327 1717 TAD PC I 117
10330 6656 device=65,func=6
10331 2240 ISZ PC 040
10332 6717 device=71,func=7
10333 0240 AND PC 040
10334 6325 device=32,func=5
10335 1716 TAD PC I 116
10336 4310 JMS PC 110
10337 5215 JMP PC 015
10340 5611 JMP PC I 011
10341 1266 TAD PC 066
10342 4260 JMS PC 060
10343 6661 device=66,func=1
10344 5612 JMP PC I 012
10345 0611 AND PC I 011
10346 4260 JMS PC 060
10347 6660 device=66,func=0
10350 5612 JMP PC I 012
10351 1611 TAD PC I 011
10352 4260 JMS PC 060
10353 4660 JMS PC I 060
10354 6211 device=21,func=1
10355 3257 DCA PC 057
10356 5317 JMP PC 117
10357 0322 AND PC 122
10360 6306 device=30,func=6
10361 2711 ISZ PC I 111
10362 5314 JMP PC 114
10363 0304 AND PC 104
10364 6723 device=72,func=3
10365 2305 ISZ PC 105
10366 6324 device=32,func=4
10367 7311 OPR CLA CLL RAR IAC 
10370 4307 JMS PC 107
10371 5215 JMP PC 015
10372 4211 JMS PC 011
10373 4660 JMS PC I 060
10374 6611 device=61,func=1
10375 2257 ISZ PC 057
10376 6705 device=70,func=5
10377 0315 AND PC 115
10400 6656 device=65,func=6
10401 1640 TAD PC I 040
10402 6724 device=72,func=4
10403 1317 TAD PC 117
10404 6301 device=30,func=1
10405 2707 ISZ PC I 107
10406 6215 device=21,func=5
10407 1212 TAD PC 012
10410 6711 device=71,func=1
10411 0316 AND PC 116
10412 5325 JMP PC 125
10413 6316 device=31,func=6
10414 4211 JMS PC 011
10415 6660 device=66,func=0
10416 6212 device=21,func=2
10417 2211 ISZ PC 011
10420 5303 JMP PC 103
10421 0301 AND PC 101
10422 6302 device=30,func=2
10423 7311 OPR CLA CLL RAR IAC 
10424 6320 device=32,func=0
10425 7325 OPR CLA CLL CML RAL IAC 
10426 4255 JMS PC 055
10427 6661 device=66,func=1
10430 6612 device=61,func=2
10431 1611 TAD PC I 011
10432 4332 JMS PC 132
10433 4714 JMS PC I 114
10434 6611 device=61,func=1
10435 1657 TAD PC I 057
10436 5305 JMP PC 105
10437 0324 AND PC 124
10440 5325 JMP PC 125
10441 0320 AND PC 120
10442 5304 JMP PC 104
10443 0306 AND PC 106
10444 5311 JMP PC 111
10445 0306 AND PC 106
10446 6314 device=31,func=4
10447 7311 OPR CLA CLL RAR IAC 
10450 5713 JMP PC I 113
10451 0275 AND PC 075
10452 4215 JMS PC 015
10453 4612 JMS PC I 012
10454 6712 device=71,func=2
10455 0315 AND PC 115
10456 6240 device=24,func=0
10457 4702 JMS PC I 102
10460 4316 JMS PC 116
10461 6663 device=66,func=3
10462 6612 device=61,func=2
10463 2211 ISZ PC 011
10464 5301 JMP PC 101
10465 0304 AND PC 104
10466 6302 device=30,func=2
10467 7311 OPR CLA CLL RAR IAC 
10470 6320 device=32,func=0
10471 7325 OPR CLA CLL CML RAL IAC 
10472 4255 JMS PC 055
10473 6661 device=66,func=1
10474 6612 device=61,func=2
10475 2211 ISZ PC 011
10476 5301 JMP PC 101
10477 0304 AND PC 104
10500 6711 device=71,func=1
10501 0316 AND PC 116
10502 5325 JMP PC 125
10503 6716 device=71,func=6
10504 5264 JMP PC 064
10505 7611 OPR CLA SCL DIV SHL LSR NMI
10506 6315 device=31,func=5
10507 5701 JMP PC I 101
10510 6305 device=30,func=5
10511 1640 TAD PC I 040
10512 4304 JMS PC 104
10513 6706 device=70,func=6
10514 6212 device=21,func=2
10515 4702 JMS PC I 102
10516 5316 JMP PC 116
10517 6263 device=26,func=3
10520 6211 device=21,func=1
10521 1704 TAD PC I 104
10522 6301 device=30,func=1
10523 1240 TAD PC 040
10524 5711 JMP PC I 111
10525 1316 TAD PC 116
10526 4215 JMS PC 015
10527 4612 JMS PC I 012
10530 6324 device=32,func=4
10531 2301 ISZ PC 101
10532 6240 device=24,func=0
10533 4702 JMS PC I 102
10534 6716 device=71,func=6
10535 2720 ISZ PC I 120
10536 5716 JMP PC I 116
10537 0655 AND PC I 055
10540 6211 device=21,func=1
10541 6657 device=65,func=7
10542 6301 device=30,func=1
10543 2713 ISZ PC I 113
10544 6240 device=24,func=0
10545 4706 JMS PC I 106
10546 6305 device=30,func=5
10547 2314 ISZ PC 114
10550 6240 device=24,func=0
10551 2723 ISZ PC I 123
10552 5324 JMP PC 124
10553 7324 OPR CLA CLL CML RAL 
10554 6240 device=24,func=0
10555 7301 OPR CLA CLL IAC 
10556 6704 device=70,func=4
10557 0240 AND PC 040
10560 6325 device=32,func=5
10561 1716 TAD PC I 116
10562 4310 JMS PC 110
10563 5215 JMP PC 015
10564 6211 device=21,func=1
10565 0724 AND PC I 124
10566 6304 device=30,func=4
10567 1240 TAD PC 040
10570 6711 device=71,func=1
10571 0316 AND PC 116
10572 5325 JMP PC 125
10573 6716 device=71,func=6
10574 5262 JMP PC 062
10575 7611 OPR CLA SCL DIV SHL LSR NMI
10576 6716 device=71,func=6
10577 2317 ISZ PC 117
10600 5305 JMP PC 105
10601 0641 AND PC I 041
10602 6306 device=30,func=6
10603 2711 ISZ PC I 111
10604 5314 JMP PC 114
10605 0304 AND PC 104
10606 6723 device=72,func=3
10607 2305 ISZ PC 105
10610 5324 JMP PC 124
10611 0256 AND PC 056
10612 6716 device=71,func=6
10613 2317 ISZ PC 117
10614 6240 device=24,func=0
10615 7311 OPR CLA CLL RAR IAC 
10616 6240 device=24,func=0
10617 4303 JMS PC 103
10620 6305 device=30,func=5
10621 5703 JMP PC I 103
10622 6323 device=32,func=3
10623 6725 device=72,func=5
10624 4241 JMS PC 041
10625 6641 device=64,func=1
10626 6212 device=21,func=2
10627 5211 JMP PC 011
10630 5315 JMP PC 115
10631 0323 AND PC 123
10632 6724 device=72,func=4
10633 0331 AND PC 131
10634 4305 JMS PC 105
10635 5215 JMP PC 015
10636 6211 device=21,func=1
10637 0724 AND PC I 124
10640 6304 device=30,func=4
10641 4640 JMS PC I 040
10642 6240 device=24,func=0
10643 4702 JMS PC I 102
10644 6716 device=71,func=6
10645 2720 ISZ PC I 120
10646 5316 JMP PC 116
10647 7611 OPR CLA SCL DIV SHL LSR NMI
10650 6707 device=70,func=7
10651 2305 ISZ PC 105
10652 6640 device=64,func=0
10653 1317 TAD PC 117
10654 6311 device=31,func=1
10655 4707 JMS PC I 107
10656 4316 JMS PC 116
10657 5215 JMP PC 015
10660 6211 device=21,func=1
10661 4711 JMS PC I 111
10662 6332 device=33,func=2
10663 1240 TAD PC 040
10664 6711 device=71,func=1
10665 0316 AND PC 116
10666 4325 JMS PC 125
10667 6716 device=71,func=6
10670 6212 device=21,func=2
10671 2211 ISZ PC 011
10672 5303 JMP PC 103
10673 0301 AND PC 101
10674 6302 device=30,func=2
10675 7311 OPR CLA CLL RAR IAC 
10676 6320 device=32,func=0
10677 7325 OPR CLA CLL CML RAL IAC 
10700 4255 JMS PC 055
10701 6661 device=66,func=1
10702 6612 device=61,func=2
10703 2211 ISZ PC 011
10704 5301 JMP PC 101
10705 0304 AND PC 104
10706 6302 device=30,func=2
10707 7311 OPR CLA CLL RAR IAC 
10710 6320 device=32,func=0
10711 7325 OPR CLA CLL CML RAL IAC 
10712 4255 JMS PC 055
10713 4661 JMS PC I 061
10714 6657 device=65,func=7
10715 2720 ISZ PC I 120
10716 6316 device=31,func=6
10717 4303 JMS PC 103
10720 6640 device=64,func=0
10721 1317 TAD PC 117
10722 6311 device=31,func=1
10723 4707 JMS PC I 107
10724 4316 JMS PC 116
10725 5215 JMP PC 015
10726 6211 device=21,func=1
10727 6712 device=71,func=2
10730 6323 device=32,func=3
10731 1240 TAD PC 040
10732 6311 device=31,func=1
10733 6316 device=31,func=6
10734 5310 JMP PC 110
10735 7611 OPR CLA SCL DIV SHL LSR NMI
10736 6314 device=31,func=4
10737 3305 DCA PC 105
10740 6324 device=32,func=4
10741 4240 JMS PC 040
10742 6301 device=30,func=1
10743 3314 DCA PC 114
10744 4240 JMS PC 040
10745 5215 JMP PC 015
10746 6211 device=21,func=1
10747 0724 AND PC I 124
10750 6304 device=30,func=4
10751 1240 TAD PC 040
10752 6601 device=60,func=1
10753 0316 AND PC 116
10754 5325 JMP PC 125
10755 6716 device=71,func=6
10756 5263 JMP PC 063
10757 7611 OPR CLA SCL DIV SHL LSR NMI
10760 5653 JMP PC I 053
10761 0261 AND PC 061
10762 6260 device=26,func=0
10763 3240 DCA PC 040
10764 5317 JMP PC 117
10765 0322 AND PC 122
10766 6317 device=31,func=7
10767 4722 JMS PC I 122
10770 6307 device=30,func=7
10771 7311 OPR CLA CLL RAR IAC 
10772 4215 JMS PC 015
10773 4612 JMS PC I 012
10774 6712 device=71,func=2
10775 1715 TAD PC I 115
10776 6240 device=24,func=0
10777 4702 JMS PC I 102
11000 6316 device=31,func=6
11001 4303 JMS PC 103
11002 4313 JMS PC 113
11003 5215 JMP PC 015
11004 6211 device=21,func=1
11005 0724 AND PC I 124
11006 6304 device=30,func=4
11007 1240 TAD PC 040
11010 6711 device=71,func=1
11011 0316 AND PC 116
11012 5325 JMP PC 125
11013 6716 device=71,func=6
11014 5261 JMP PC 061
11015 7611 OPR CLA SCL DIV SHL LSR NMI
11016 6322 device=32,func=2
11017 3711 DCA PC I 111
11020 5310 JMP PC 110
11021 0324 AND PC 124
11022 6310 device=31,func=0
11023 6301 device=30,func=1
11024 6306 device=30,func=6
11025 0640 AND PC I 040
11026 5316 JMP PC 116
11027 0304 AND PC 104
11030 6320 device=32,func=0
11031 7325 OPR CLA CLL CML RAL IAC 
11032 4303 JMS PC 103
11033 6710 device=71,func=0
11034 6212 device=21,func=2
11035 0611 AND PC I 011
11036 5316 JMP PC 116
11037 0304 AND PC 104
11040 6302 device=30,func=2
11041 7311 OPR CLA CLL RAR IAC 
11042 6314 device=31,func=4
11043 4310 JMS PC 110
11044 4261 JMS PC 061
11045 5215 JMP PC 015
11046 6211 device=21,func=1
11047 6712 device=71,func=2
11050 6323 device=32,func=3
11051 1240 TAD PC 040
11052 6311 device=31,func=1
11053 1716 TAD PC I 116
11054 4310 JMS PC 110
11055 6713 device=71,func=3
11056 6612 device=61,func=2
11057 2211 ISZ PC 011
11060 5301 JMP PC 101
11061 0304 AND PC 104
11062 6311 device=31,func=1
11063 1240 TAD PC 040
11064 6711 device=71,func=1
11065 0316 AND PC 116
11066 4325 JMS PC 125
11067 4716 JMS PC I 116
11070 6257 device=25,func=7
11071 2723 ISZ PC I 123
11072 6724 device=72,func=4
11073 2640 ISZ PC I 040
11074 6720 device=72,func=0
11075 0240 AND PC 040
11076 6317 device=31,func=7
11077 7311 OPR CLA CLL RAR IAC 
11100 6724 device=72,func=4
11101 1305 TAD PC 105
11102 4215 JMS PC 015
11103 4612 JMS PC I 012
11104 6304 device=30,func=4
11105 0703 AND PC I 103
11106 6240 device=24,func=0
11107 4702 JMS PC I 102
11110 6716 device=71,func=6
11111 2720 ISZ PC I 120
11112 5716 JMP PC I 116
11113 0655 AND PC I 055
11114 4215 JMS PC 015
11115 4612 JMS PC I 012
11116 6711 device=71,func=1
11117 5323 JMP PC 123
11120 6240 device=24,func=0
11121 4702 JMS PC I 102
11122 6716 device=71,func=6
11123 2720 ISZ PC I 120
11124 4316 JMS PC 116
11125 5215 JMP PC 015
11126 6211 device=21,func=1
11127 0724 AND PC I 124
11130 6304 device=30,func=4
11131 4640 JMS PC I 040
11132 6240 device=24,func=0
11133 4702 JMS PC I 102
11134 6716 device=71,func=6
11135 2720 ISZ PC I 120
11136 5316 JMP PC 116
11137 7611 OPR CLA SCL DIV SHL LSR NMI
11140 6707 device=70,func=7
11141 2305 ISZ PC 105
11142 6240 device=24,func=0
11143 7305 OPR CLA CLL RAL IAC 
11144 4304 JMS PC 104
11145 5215 JMP PC 015
11146 6211 device=21,func=1
11147 1704 TAD PC I 104
11150 6301 device=30,func=1
11151 1240 TAD PC 040
11152 6311 device=31,func=1
11153 2716 ISZ PC I 116
11154 4316 JMS PC 116
11155 6704 device=70,func=4
11156 6212 device=21,func=2
11157 4702 JMS PC I 102
11160 5316 JMP PC 116
11161 6262 device=26,func=2
11162 6211 device=21,func=1
11163 2303 ISZ PC 103
11164 5706 JMP PC I 106
11165 0240 AND PC 040
11166 5211 JMP PC 011
11167 7611 OPR CLA SCL DIV SHL LSR NMI
11170 6317 device=31,func=7
11171 2726 ISZ PC I 126
11172 6322 device=32,func=2
11173 0714 AND PC I 114
11174 5311 JMP PC 111
11175 0304 AND PC 104
11176 5302 JMP PC 102
11177 0331 AND PC 131
11200 6303 device=30,func=3
11201 3304 DCA PC 104
11202 6640 device=64,func=0
11203 2323 ISZ PC 123
11204 6322 device=32,func=2
11205 7301 OPR CLA CLL IAC 
11206 5307 JMP PC 107
11207 0305 AND PC 105
11210 6306 device=30,func=6
11211 2711 ISZ PC I 111
11212 4314 JMS PC 114
11213 6704 device=70,func=4
11214 6612 device=61,func=2
11215 2211 ISZ PC 011
11216 5301 JMP PC 101
11217 0304 AND PC 104
11220 6311 device=31,func=1
11221 1240 TAD PC 040
11222 6711 device=71,func=1
11223 0316 AND PC 116
11224 5325 JMP PC 125
11225 6716 device=71,func=6
11226 5261 JMP PC 061
11227 7611 OPR CLA SCL DIV SHL LSR NMI
11230 6707 device=70,func=7
11231 2305 ISZ PC 105
11232 6240 device=24,func=0
11233 0704 AND PC I 104
11234 4324 JMS PC 124
11235 6701 device=70,func=1
11236 6212 device=21,func=2
11237 5211 JMP PC 011
11240 5315 JMP PC 115
11241 0323 AND PC 123
11242 6302 device=30,func=2
11243 7311 OPR CLA CLL RAR IAC 
11244 4314 JMS PC 114
11245 4710 JMS PC I 110
11246 6657 device=65,func=7
11247 2720 ISZ PC I 120
11250 6316 device=31,func=6
11251 4303 JMS PC 103
11252 6240 device=24,func=0
11253 2714 ISZ PC I 114
11254 5306 JMP PC 106
11255 0324 AND PC 124
11256 6310 device=31,func=0
11257 6301 device=30,func=1
11260 4306 JMS PC 106
11261 5215 JMP PC 015
11262 6211 device=21,func=1
11263 6712 device=71,func=2
11264 6323 device=32,func=3
11265 1240 TAD PC 040
11266 6311 device=31,func=1
11267 1716 TAD PC I 116
11270 4310 JMS PC 110
11271 6713 device=71,func=3
11272 6612 device=61,func=2
11273 2211 ISZ PC 011
11274 5301 JMP PC 101
11275 0304 AND PC 104
11276 6311 device=31,func=1
11277 1240 TAD PC 040
11300 6711 device=71,func=1
11301 0316 AND PC 116
11302 5325 JMP PC 125
11303 6716 device=71,func=6
11304 5261 JMP PC 061
11305 7611 OPR CLA SCL DIV SHL LSR NMI
11306 6320 device=32,func=0
11307 7325 OPR CLA CLL CML RAL IAC 
11310 5303 JMP PC 103
11311 0310 AND PC 110
11312 6322 device=32,func=2
11313 3711 DCA PC I 111
11314 5310 JMP PC 110
11315 0324 AND PC 124
11316 6310 device=31,func=0
11317 6301 device=30,func=1
11320 4306 JMS PC 106
11321 5215 JMP PC 015
11322 6211 device=21,func=1
11323 7301 OPR CLA CLL IAC 
11324 6304 device=30,func=4
11325 1240 TAD PC 040
11326 6311 device=31,func=1
11327 6316 device=31,func=6
11330 5710 JMP PC I 110
11331 0655 AND PC I 055
11332 4215 JMS PC 015
11333 4612 JMS PC I 012
11334 6712 device=71,func=2
11335 1715 TAD PC I 115
11336 6240 device=24,func=0
11337 4702 JMS PC I 102
11340 6316 device=31,func=6
11341 4303 JMS PC 103
11342 4313 JMS PC 113
11343 5215 JMP PC 015
11344 6211 device=21,func=1
11345 0724 AND PC I 124
11346 6304 device=30,func=4
11347 1240 TAD PC 040
11350 6311 device=31,func=1
11351 2716 ISZ PC I 116
11352 4316 JMS PC 116
11353 4704 JMS PC I 104
11354 6257 device=25,func=7
11355 7305 OPR CLA CLL RAL IAC 
11356 6704 device=70,func=4
11357 1240 TAD PC 040
11360 6305 device=30,func=5
11361 1701 TAD PC I 101
11362 6310 device=31,func=0
11363 2305 ISZ PC 105
11364 4277 JMS PC 077
11365 5215 JMP PC 015
11366 6211 device=21,func=1
11367 4703 JMS PC I 103
11370 4301 JMS PC 101
11371 5215 JMP PC 015
11372 6211 device=21,func=1
11373 6303 device=30,func=3
11374 4314 JMS PC 114
11375 5215 JMP PC 015
11376 6211 device=21,func=1
11377 0724 AND PC I 124
11400 6304 device=30,func=4
11401 1240 TAD PC 040
11402 6711 device=71,func=1
11403 0316 AND PC 116
11404 5325 JMP PC 125
11405 6716 device=71,func=6
11406 4255 JMS PC 055
11407 5215 JMP PC 015
11410 6611 device=61,func=1
11411 1711 TAD PC I 111
11412 6332 device=33,func=2
11413 1240 TAD PC 040
11414 6711 device=71,func=1
11415 0316 AND PC 116
11416 5325 JMP PC 125
11417 6716 device=71,func=6
11420 4261 JMS PC 061
11421 5215 JMP PC 015
11422 6211 device=21,func=1
11423 7323 OPR CLA CLL CML BSW IAC 
11424 6314 device=31,func=4
11425 1640 TAD PC I 040
11426 4314 JMS PC 114
11427 6701 device=70,func=1
11430 6212 device=21,func=2
11431 5211 JMP PC 011
11432 5315 JMP PC 115
11433 0320 AND PC 120
11434 6302 device=30,func=2
11435 7311 OPR CLA CLL RAR IAC 
11436 5662 JMP PC I 062
11437 0653 AND PC I 053
11440 6211 device=21,func=1
11441 7257 OPR CLA CMA RAR RAL BSW IAC 
11442 5317 JMP PC 117
11443 0254 AND PC 054
11444 6324 device=32,func=4
11445 5701 JMP PC I 101
11446 6305 device=30,func=5
11447 7240 OPR CLA CMA 
11450 6705 device=70,func=5
11451 2330 ISZ PC 130
11452 6240 device=24,func=0
11453 0704 AND PC I 104
11454 4324 JMS PC 124
11455 6701 device=70,func=1
11456 6612 device=61,func=2
11457 1211 TAD PC 011
11460 4311 JMS PC 111
11461 4706 JMS PC I 106
11462 6611 device=61,func=1
11463 4657 JMS PC I 057
11464 5305 JMP PC 105
11465 6323 device=32,func=3
11466 6722 device=72,func=2
11467 1705 TAD PC I 105
11470 6724 device=72,func=4
11471 1317 TAD PC 117
11472 6305 device=30,func=5
11473 2240 ISZ PC 040
11474 4306 JMS PC 106
11475 5215 JMP PC 015
11476 6211 device=21,func=1
11477 2301 ISZ PC 101
11500 6240 device=24,func=0
11501 4702 JMS PC I 102
11502 6716 device=71,func=6
11503 2720 ISZ PC I 120
11504 5716 JMP PC I 116
11505 2255 ISZ PC 055
11506 4215 JMS PC 015
11507 4612 JMS PC I 012
11510 6304 device=30,func=4
11511 0703 AND PC I 103
11512 5240 JMP PC 040
11513 5656 JMP PC I 056
11514 4261 JMS PC 061
11515 5215 JMP PC 015
11516 6211 device=21,func=1
11517 2303 ISZ PC 103
11520 5706 JMP PC I 106
11521 0240 AND PC 040
11522 5211 JMP PC 011
11523 7611 OPR CLA SCL DIV SHL LSR NMI
11524 6317 device=31,func=7
11525 2726 ISZ PC I 126
11526 6322 device=32,func=2
11527 0714 AND PC I 114
11530 4311 JMS PC 111
11531 6704 device=70,func=4
11532 6212 device=21,func=2
11533 4611 JMS PC I 011
11534 5323 JMP PC 123
11535 0332 AND PC 132
11536 6302 device=30,func=2
11537 7311 OPR CLA CLL RAR IAC 
11540 6320 device=32,func=0
11541 7325 OPR CLA CLL CML RAL IAC 
11542 4215 JMS PC 015
11543 4612 JMS PC I 012
11544 6712 device=71,func=2
11545 0315 AND PC 115
11546 5240 JMP PC 040
11547 0311 AND PC 111
11550 6302 device=30,func=2
11551 7311 OPR CLA CLL RAR IAC 
11552 6320 device=32,func=0
11553 7325 OPR CLA CLL CML RAL IAC 
11554 4215 JMS PC 015
11555 4612 JMS PC I 012
11556 6323 device=32,func=3
11557 0720 AND PC I 120
11560 6240 device=24,func=0
11561 6303 device=30,func=3
11562 4301 JMS PC 101
11563 5215 JMP PC 015
11564 5215 JMP PC 015
11565 7612 OPR CLA HLT 
11566 5307 JMP PC 107
11567 0324 AND PC 124
11570 6314 device=31,func=4
11571 3305 DCA PC 105
11572 6324 device=32,func=4
11573 4240 JMS PC 040
11574 6301 device=30,func=1
11575 3314 DCA PC 114
11576 6240 device=24,func=0
11577 3317 DCA PC 117
11600 6240 device=24,func=0
11601 4324 JMS PC 124
11602 6305 device=30,func=5
11603 0640 AND PC I 040
11604 4303 JMS PC 103
11605 5215 JMP PC 015
11606 5611 JMP PC I 011
11607 3667 DCA PC I 067
11610 6215 device=21,func=5
11611 1212 TAD PC 012
11612 6311 device=31,func=1
11613 6316 device=31,func=6
11614 4310 JMS PC 110
11615 4654 JMS PC I 054
11616 4260 JMS PC 060
11617 5215 JMP PC 015
11620 6611 device=61,func=1
11621 2322 ISZ PC 122
11622 4322 JMS PC 122
11623 5215 JMP PC 015
11624 6611 device=61,func=1
11625 2322 ISZ PC 122
11626 4322 JMS PC 122
11627 5215 JMP PC 015
11630 6611 device=61,func=1
11631 2322 ISZ PC 122
11632 4322 JMS PC 122
11633 5215 JMP PC 015
11634 6211 device=21,func=1
11635 7301 OPR CLA CLL IAC 
11636 6304 device=30,func=4
11637 1240 TAD PC 040
11640 6311 device=31,func=1
11641 6316 device=31,func=6
11642 5710 JMP PC I 110
11643 0655 AND PC I 055
11644 4215 JMS PC 015
11645 4612 JMS PC I 012
11646 6712 device=71,func=2
11647 0315 AND PC 115
11650 5240 JMP PC 040
11651 0311 AND PC 111
11652 6302 device=30,func=2
11653 7311 OPR CLA CLL RAR IAC 
11654 4314 JMS PC 114
11655 6710 device=71,func=0
11656 4212 JMS PC 012
11657 6615 device=61,func=5
11660 6657 device=65,func=7
11661 0325 AND PC 125
11662 6704 device=70,func=4
11663 2301 ISZ PC 101
11664 6705 device=70,func=5
11665 2240 ISZ PC 040
11666 5310 JMP PC 110
11667 0305 AND PC 105
11670 6303 device=30,func=3
11671 2710 ISZ PC I 110
11672 6703 device=70,func=3
11673 1713 TAD PC I 113
11674 5325 JMP PC 125
11675 6315 device=31,func=5
11676 6240 device=24,func=0
11677 7301 OPR CLA CLL IAC 
11700 6704 device=70,func=4
11701 0240 AND PC 040
11702 6325 device=32,func=5
11703 1716 TAD PC I 116
11704 6310 device=31,func=0
11705 3240 DCA PC 040
11706 6322 device=32,func=2
11707 6701 device=70,func=1
11710 4305 JMS PC 105
11711 5215 JMP PC 015
11712 4211 JMS PC 011
11713 4660 JMS PC I 060
11714 6211 device=21,func=1
11715 1657 TAD PC I 057
11716 6310 device=31,func=0
11717 1705 TAD PC I 105
11720 6713 device=71,func=3
11721 2723 ISZ PC I 123
11722 4315 JMS PC 115
11723 5215 JMP PC 015
11724 6302 device=30,func=2
11725 7311 OPR CLA CLL RAR IAC 
11726 6303 device=30,func=3
11727 5710 JMP PC I 110
11730 5654 JMP PC I 054
11731 0211 AND PC 011
11732 5211 JMP PC 011
11733 7611 OPR CLA SCL DIV SHL LSR NMI
11734 6705 device=70,func=5
11735 2316 ISZ PC 116
11736 5305 JMP PC 105
11737 0322 AND PC 122
11740 6727 device=72,func=7
11741 2311 ISZ PC 111
11742 5710 JMP PC I 110
11743 3240 DCA PC 040
11744 6240 device=24,func=0
11745 4702 JMS PC I 102
11746 6724 device=72,func=4
11747 1240 TAD PC 040
11750 6301 device=30,func=1
11751 2715 ISZ PC I 115
11752 6240 device=24,func=0
11753 7311 OPR CLA CLL RAR IAC 
11754 6240 device=24,func=0
11755 1701 TAD PC I 101
11756 4215 JMS PC 015
11757 4612 JMS PC I 012
11760 6304 device=30,func=4
11761 0703 AND PC I 103
11762 6240 device=24,func=0
11763 4702 JMS PC I 102
11764 6316 device=31,func=6
11765 4314 JMS PC 114
11766 6611 device=61,func=1
11767 2657 ISZ PC I 057
11770 5323 JMP PC 123
11771 0305 AND PC 105
11772 6302 device=30,func=2
11773 7311 OPR CLA CLL RAR IAC 
11774 5314 JMP PC 114
11775 0310 AND PC 110
11776 6324 device=32,func=4
11777 6705 device=70,func=5
12000 6720 device=72,func=0
12001 1317 TAD PC 117
12002 6301 device=30,func=1
12003 4722 JMS PC I 122
12004 4314 JMS PC 114
12005 6731 device=73,func=1
12006 6612 device=61,func=2
12007 2211 ISZ PC 011
12010 5301 JMP PC 101
12011 0304 AND PC 104
12012 6302 device=30,func=2
12013 7311 OPR CLA CLL RAR IAC 
12014 4314 JMS PC 114
12015 6710 device=71,func=0
12016 6612 device=61,func=2
12017 2211 ISZ PC 011
12020 5301 JMP PC 101
12021 0304 AND PC 104
12022 6302 device=30,func=2
12023 7311 OPR CLA CLL RAR IAC 
12024 6303 device=30,func=3
12025 5710 JMP PC I 110
12026 4255 JMS PC 055
12027 4661 JMS PC I 061
12030 6657 device=65,func=7
12031 0325 AND PC 125
12032 5304 JMP PC 104
12033 0256 AND PC 056
12034 6303 device=30,func=3
12035 5710 JMP PC I 110
12036 4323 JMS PC 123
12037 6715 device=71,func=5
12040 6212 device=21,func=2
12041 2211 ISZ PC 011
12042 5303 JMP PC 103
12043 0301 AND PC 101
12044 6302 device=30,func=2
12045 7311 OPR CLA CLL RAR IAC 
12046 6303 device=30,func=3
12047 5710 JMP PC I 110
12050 4255 JMS PC 055
12051 6661 device=66,func=1
12052 6612 device=61,func=2
12053 2211 ISZ PC 011
12054 5301 JMP PC 101
12055 0304 AND PC 104
12056 6302 device=30,func=2
12057 7311 OPR CLA CLL RAR IAC 
12060 4314 JMS PC 114
12061 6710 device=71,func=0
12062 6212 device=21,func=2
12063 5211 JMP PC 011
12064 5315 JMP PC 115
12065 0323 AND PC 123
12066 6724 device=72,func=4
12067 0331 AND PC 131
12070 4305 JMS PC 105
12071 5215 JMP PC 015
12072 6211 device=21,func=1
12073 6712 device=71,func=2
12074 6320 device=32,func=0
12075 4640 JMS PC I 040
12076 6240 device=24,func=0
12077 4702 JMS PC I 102
12100 6316 device=31,func=6
12101 4303 JMS PC 103
12102 4313 JMS PC 113
12103 5215 JMP PC 015
12104 5215 JMP PC 015
12105 7612 OPR CLA HLT 
12106 6320 device=32,func=0
12107 7325 OPR CLA CLL CML RAL IAC 
12110 5303 JMP PC 103
12111 0310 AND PC 110
12112 5661 JMP PC I 061
12113 0260 AND PC 060
12114 5250 JMP PC 050
12115 4670 JMS PC I 070
12116 6240 device=24,func=0
12117 2714 ISZ PC I 114
12120 6301 device=30,func=1
12121 2704 ISZ PC I 104
12122 6322 device=32,func=2
12123 7640 OPR CLA SZA 
12124 6722 device=72,func=2
12125 2240 ISZ PC 040
12126 6322 device=32,func=2
12127 4701 JMS PC I 101
12130 6714 device=71,func=4
12131 1314 TAD PC 114
12132 6240 device=24,func=0
12133 7710 OPR CLA SPA 
12134 6714 device=71,func=4
12135 1705 TAD PC I 105
12136 6273 device=27,func=3
12137 1640 TAD PC I 040
12140 6314 device=31,func=4
12141 0705 AND PC I 105
12142 6322 device=32,func=2
12143 1640 TAD PC I 040
12144 6310 device=31,func=0
12145 1705 TAD PC I 105
12146 6713 device=71,func=3
12147 2723 ISZ PC I 123
12150 4315 JMS PC 115
12151 5215 JMP PC 015
12152 5611 JMP PC I 011
12153 0262 AND PC 062
12154 4260 JMS PC 060
12155 5215 JMP PC 015
12156 6314 device=31,func=4
12157 0705 AND PC I 105
12160 6704 device=70,func=4
12161 1305 TAD PC 105
12162 5654 JMP PC I 054
12163 0211 AND PC 011
12164 4215 JMS PC 015
12165 4612 JMS PC I 012
12166 6324 device=32,func=4
12167 2301 ISZ PC 101
12170 6240 device=24,func=0
12171 4702 JMS PC I 102
12172 6716 device=71,func=6
12173 2720 ISZ PC I 120
12174 5716 JMP PC I 116
12175 1655 TAD PC I 055
12176 6611 device=61,func=1
12177 2657 ISZ PC I 057
12200 5323 JMP PC 123
12201 0305 AND PC 105
12202 6303 device=30,func=3
12203 5710 JMP PC I 110
12204 5323 JMP PC 123
12205 0315 AND PC 115
12206 5301 JMP PC 101
12207 0323 AND PC 123
12210 6316 device=31,func=6
12211 3705 DCA PC I 105
12212 6240 device=24,func=0
12213 7703 OPR CLA MQA SCL DIV SHL LSR SCL
12214 6725 device=72,func=5
12215 2316 ISZ PC 116
12216 4215 JMS PC 015
12217 4612 JMS PC I 012
12220 6303 device=30,func=3
12221 0711 AND PC I 111
12222 4301 JMS PC 101
12223 4612 JMS PC I 012
12224 6304 device=30,func=4
12225 0703 AND PC I 103
12226 6240 device=24,func=0
12227 4702 JMS PC I 102
12230 6316 device=31,func=6
12231 4303 JMS PC 103
12232 5713 JMP PC I 113
12233 0655 AND PC I 055
12234 4215 JMS PC 015
12235 4612 JMS PC I 012
12236 6324 device=32,func=4
12237 2301 ISZ PC 101
12240 6240 device=24,func=0
12241 2714 ISZ PC I 114
12242 6301 device=30,func=1
12243 2704 ISZ PC I 104
12244 5722 JMP PC I 122
12245 0655 AND PC I 055
12246 4215 JMS PC 015
12247 4612 JMS PC I 012
12250 6712 device=71,func=2
12251 1715 TAD PC I 115
12252 6640 device=64,func=0
12253 4724 JMS PC I 124
12254 4320 JMS PC 120
12255 6705 device=70,func=5
12256 6212 device=21,func=2
12257 4611 JMS PC I 011
12260 5323 JMP PC 123
12261 0332 AND PC 132
12262 6302 device=30,func=2
12263 7311 OPR CLA CLL RAR IAC 
12264 6303 device=30,func=3
12265 5710 JMP PC I 110
12266 4255 JMS PC 055
12267 4661 JMS PC I 061
12270 6257 device=25,func=7
12271 2722 ISZ PC I 122
12272 6701 device=70,func=1
12273 4704 JMS PC I 104
12274 4277 JMS PC 077
12275 5215 JMP PC 015
12276 6211 device=21,func=1
12277 6712 device=71,func=2
12300 5320 JMP PC 120
12301 7240 OPR CLA CMA 
12302 4255 JMS PC 055
12303 4663 JMS PC I 063
12304 6211 device=21,func=1
12305 7257 OPR CLA CMA RAR RAL BSW IAC 
12306 4317 JMS PC 117
12307 5215 JMP PC 015
12310 6211 device=21,func=1
12311 6712 device=71,func=2
12312 6320 device=32,func=0
12313 4720 JMS PC I 120
12314 6240 device=24,func=0
12315 2714 ISZ PC I 114
12316 6301 device=30,func=1
12317 2704 ISZ PC I 104
12320 5322 JMP PC 122
12321 7611 OPR CLA SCL DIV SHL LSR NMI
12322 6731 device=73,func=1
12323 1705 TAD PC I 105
12324 4215 JMS PC 015
12325 6612 device=61,func=2
12326 6612 device=61,func=2
12327 0257 AND PC 057
12330 6325 device=32,func=5
12331 1716 TAD PC I 116
12332 6310 device=31,func=0
12333 1640 TAD PC I 040
12334 6310 device=31,func=0
12335 1705 TAD PC I 105
12336 6713 device=71,func=3
12337 2723 ISZ PC I 123
12340 6715 device=71,func=5
12341 0273 AND PC 073
12342 6325 device=32,func=5
12343 1716 TAD PC I 116
12344 6710 device=71,func=0
12345 2240 ISZ PC 040
12346 6322 device=32,func=2
12347 4701 JMS PC I 101
12350 6714 device=71,func=4
12351 1305 TAD PC 105
12352 6273 device=27,func=3
12353 6303 device=30,func=3
12354 6705 device=70,func=5
12355 1301 TAD PC 101
12356 6240 device=24,func=0
12357 4303 JMS PC 103
12360 6305 device=30,func=5
12361 5703 JMP PC I 103
12362 6323 device=32,func=3
12363 6725 device=72,func=5
12364 4215 JMS PC 015
12365 6612 device=61,func=2
12366 6612 device=61,func=2
12367 2720 ISZ PC I 120
12370 6316 device=31,func=6
12371 4303 JMS PC 103
12372 4313 JMS PC 113
12373 4654 JMS PC I 054
12374 4260 JMS PC 060
12375 5215 JMP PC 015
12376 6211 device=21,func=1
12377 0724 AND PC I 124
12400 6304 device=30,func=4
12401 1240 TAD PC 040
12402 6311 device=31,func=1
12403 1716 TAD PC I 116
12404 5310 JMP PC 110
12405 6713 device=71,func=3
12406 5261 JMP PC 061
12407 7611 OPR CLA SCL DIV SHL LSR NMI
12410 6707 device=70,func=7
12411 2305 ISZ PC 105
12412 6240 device=24,func=0
12413 4303 JMS PC 103
12414 6305 device=30,func=5
12415 5703 JMP PC I 103
12416 6323 device=32,func=3
12417 6725 device=72,func=5
12420 4215 JMS PC 015
12421 4612 JMS PC I 012
12422 6712 device=71,func=2
12423 1715 TAD PC I 115
12424 6240 device=24,func=0
12425 4702 JMS PC I 102
12426 6316 device=31,func=6
12427 4314 JMS PC 114
12430 4215 JMS PC 015
12431 4612 JMS PC I 012
12432 6712 device=71,func=2
12433 1715 TAD PC I 115
12434 6640 device=64,func=0
12435 4724 JMS PC I 124
12436 4320 JMS PC 120
12437 6705 device=70,func=5
12440 6612 device=61,func=2
12441 2211 ISZ PC 011
12442 5301 JMP PC 101
12443 0304 AND PC 104
12444 6302 device=30,func=2
12445 7311 OPR CLA CLL RAR IAC 
12446 6303 device=30,func=3
12447 5710 JMP PC I 110
12450 4255 JMS PC 055
12451 6661 device=66,func=1
12452 6212 device=21,func=2
12453 0611 AND PC I 011
12454 5316 JMP PC 116
12455 0304 AND PC 104
12456 6302 device=30,func=2
12457 7311 OPR CLA CLL RAR IAC 
12460 5314 JMP PC 114
12461 6710 device=71,func=0
12462 4261 JMS PC 061
12463 5215 JMP PC 015
12464 6211 device=21,func=1
12465 6712 device=71,func=2
12466 6723 device=72,func=3
12467 2240 ISZ PC 040
12470 6331 device=33,func=1
12471 2720 ISZ PC I 120
12472 4215 JMS PC 015
12473 4612 JMS PC I 012
12474 6712 device=71,func=2
12475 1715 TAD PC I 115
12476 6240 device=24,func=0
12477 2714 ISZ PC I 114
12500 6301 device=30,func=1
12501 2704 ISZ PC I 104
12502 5322 JMP PC 122
12503 7611 OPR CLA SCL DIV SHL LSR NMI
12504 6303 device=30,func=3
12505 2714 ISZ PC I 114
12506 6701 device=70,func=1
12507 1722 TAD PC I 122
12510 6240 device=24,func=0
12511 4303 JMS PC 103
12512 6305 device=30,func=5
12513 5703 JMP PC I 103
12514 6323 device=32,func=3
12515 6725 device=72,func=5
12516 4215 JMS PC 015
12517 4612 JMS PC I 012
12520 6712 device=71,func=2
12521 0315 AND PC 115
12522 5240 JMP PC 040
12523 0311 AND PC 111
12524 6320 device=32,func=0
12525 7325 OPR CLA CLL CML RAL IAC 
12526 6303 device=30,func=3
12527 5710 JMP PC I 110
12530 4215 JMS PC 015
12531 6212 device=21,func=2
12532 0232 AND PC 032
12533 0000 AND 000
12534 0000 AND 000
12535 0000 AND 000
12536 0000 AND 000
12537 0000 AND 000
12540 0000 AND 000
12541 0000 AND 000
12542 0000 AND 000
12543 0000 AND 000
12544 0000 AND 000
12545 0000 AND 000
12546 0000 AND 000
12547 0000 AND 000
12550 0000 AND 000
12551 0000 AND 000
12552 0000 AND 000
12553 0000 AND 000
12554 0000 AND 000
12555 0000 AND 000
12556 0000 AND 000
12557 0000 AND 000
12560 0000 AND 000
12561 0000 AND 000
12562 0000 AND 000
12563 0000 AND 000
12564 0000 AND 000
12565 0000 AND 000
12566 0000 AND 000
12567 0000 AND 000
12570 0000 AND 000
12571 0000 AND 000
12572 0000 AND 000
12573 0000 AND 000
12574 0000 AND 000
12575 0000 AND 000
12576 0000 AND 000
12577 0000 AND 000
12600 0000 AND 000
12601 0000 AND 000
12602 0000 AND 000
12603 0000 AND 000
12604 0000 AND 000
12605 0000 AND 000
12606 0000 AND 000
12607 0000 AND 000
12610 0000 AND 000
12611 0000 AND 000
12612 0000 AND 000
12613 0000 AND 000
12614 0000 AND 000
12615 0000 AND 000
12616 0000 AND 000
12617 0000 AND 000
12620 0000 AND 000
12621 0000 AND 000
12622 0000 AND 000
12623 0000 AND 000
12624 0000 AND 000
12625 0000 AND 000
12626 0000 AND 000
12627 0000 AND 000
12630 0000 AND 000
12631 0000 AND 000
12632 0000 AND 000
12633 0000 AND 000
12634 0000 AND 000
12635 0000 AND 000
12636 0000 AND 000
12637 0000 AND 000
12640 0000 AND 000
12641 0000 AND 000
12642 0000 AND 000
12643 0000 AND 000
12644 0000 AND 000
12645 0000 AND 000
12646 0000 AND 000
12647 0000 AND 000
12650 0000 AND 000
12651 0000 AND 000
12652 0000 AND 000
12653 0000 AND 000
12654 0000 AND 000
12655 0000 AND 000
12656 0000 AND 000
12657 0000 AND 000
12660 0000 AND 000
12661 0000 AND 000
12662 0000 AND 000
12663 0000 AND 000
12664 0000 AND 000
12665 0000 AND 000
12666 0000 AND 000
12667 0000 AND 000
12670 0000 AND 000
12671 0000 AND 000
12672 0000 AND 000
12673 0000 AND 000
12674 0000 AND 000
12675 0000 AND 000
12676 0000 AND 000
12677 0000 AND 000
12700 0000 AND 000
12701 0000 AND 000
12702 0000 AND 000
12703 0000 AND 000
12704 0000 AND 000
12705 0000 AND 000
12706 0000 AND 000
12707 0000 AND 000
12710 0000 AND 000
12711 0000 AND 000
12712 0000 AND 000
12713 0000 AND 000
12714 0000 AND 000
12715 0000 AND 000
12716 0000 AND 000
12717 0000 AND 000
12720 0000 AND 000
12721 0000 AND 000
12722 0000 AND 000
12723 0000 AND 000
12724 0000 AND 000
12725 0000 AND 000
12726 0000 AND 000
12727 0000 AND 000
12730 0000 AND 000
12731 0000 AND 000
12732 0000 AND 000
12733 0000 AND 000
12734 0000 AND 000
12735 0000 AND 000
12736 0000 AND 000
12737 0000 AND 000
12740 0000 AND 000
12741 0000 AND 000
12742 0000 AND 000
12743 0000 AND 000
12744 0000 AND 000
12745 0000 AND 000
12746 0000 AND 000
12747 0000 AND 000
12750 0000 AND 000
12751 0000 AND 000
12752 0000 AND 000
12753 0000 AND 000
12754 0000 AND 000
12755 0000 AND 000
12756 0000 AND 000
12757 0000 AND 000
12760 0000 AND 000
12761 0000 AND 000
12762 0000 AND 000
12763 0000 AND 000
12764 0000 AND 000
12765 0000 AND 000
12766 0000 AND 000
12767 0000 AND 000
12770 0000 AND 000
12771 0000 AND 000
12772 0000 AND 000
12773 0000 AND 000
12774 0000 AND 000
12775 0000 AND 000
12776 0000 AND 000
12777 0000 AND 000
